mads 2.1.8
ACTION-ROM-OSS-16k.asm -l 
Source: ACTION-ROM-OSS-16k.asm
     1 				;
     2 				;	ACTION.ASM - OSS 16k ROM Version, cartridge type 15
     3 				;
     4 				; Copyright 1983 by Clinton W Parker.
     5 				; All Rights Reserved.
     6 				; Original last modified November 4, 1983.
     7 				;
     8 				; This file is part of Action!.
     9 				;
    10 				; Action! is free software: you can redistribute it and/or modify
    11 				; it under the terms of the GNU General Public License as published by
    12 				; the Free Software Foundation, either version 3 of the License, or
    13 				; (at your option) any later version.
    14 				;
    15 				; Action! is distributed in the hope that it will be useful,
    16 				; but WITHOUT ANY WARRANTY; without even the implied warranty of
    17 				; MERCHANTABILITY or FITNESS FOR A PARTICULAR PURPOSE.  See the
    18 				; GNU General Public License for more details.
    19 				;
    20 				; You should have received a copy of the GNU General Public License
    21 				; along with Action!.  If not, see <http://www.gnu.org/licenses/>.
    22 				;
    23 				; @com.wudsn.ide.asm.outputfile=../out/ACTION-ROM-OSS-16k.rom
    24
    25 				; Options
    26 = 0001			ramzap		= 1
    27 = 0000			feature_build_version = 0
    28 				;feature_build_type =
    29 = 0000			feature_error_texts = 0
    30 = 0000			fix_stsp_pages	= 0
    31 = 0000			fix_save_initad = 0
    32 = 0000			fix_cio_aux2 = 0
    33
    34 					opt h-
    35
    36 					icl	"ACTION.DEF.asm"
Source: ACTION.DEF.asm
     1 				;
     2 				;	ACTION.DEF
     3 				;
     4 				; This file is not part of the original distribution.
     5 				;
     6 				; This file is part of Action!.
     7 				;
     8 				; Action! is free software: you can redistribute it and/or modify
     9 				; it under the terms of the GNU General Public License as published by
    10 				; the Free Software Foundation, either version 3 of the License, or
    11 				; (at your option) any later version.
    12 				;
    13 				; Action! is distributed in the hope that it will be useful,
    14 				; but WITHOUT ANY WARRANTY; without even the implied warranty of
    15 				; MERCHANTABILITY or FITNESS FOR A PARTICULAR PURPOSE.  See the
    16 				; GNU General Public License for more details.
    17 				;
    18 				; You should have received a copy of the GNU General Public License
    19 				; along with Action!.  If not, see <http://www.gnu.org/licenses/>.
    20 				;
    21 				; @com.wudsn.ide.asm.mainsourcefile=ACTION.asm
    22
    23 				; system defs
    24 				;-------------
    25 = 0020			space	equ	$20
    26 = 009B			eol	equ	$9b
    27
    28 				; system vars
    29 				;-------------
    30 = 0008			warmst	equ	$08
    31 = 0009			boot	equ	$09
    32 = 000A			dosvec	equ	$0a
    33 = 000C			dosini	equ	$0c
    34 = 000E			qcode	equ	$0e	; ap. high mem.
    35 = 0011			brkkey	equ	$11
    36 = 0012			rtclok	equ	$12
    37 = 0064			adress	equ	$64
    38 = 0052			lmargin equ	$52
    39 = 0053			rmargin equ	$53
    40 = 0054			rowcrs	equ	$54
    41 = 0055			colcrs	equ	$55
    42 = 0057			dindex	equ	$57
    43 = 0058			savmsc	equ	$58
    44 = 005A			oldrow	equ	$5a
    45 = 005B			oldcol	equ	$5b
    46 = 005E			oldadr	equ	$5e
    47 = 005D			oldchr	equ	$5d
    48 = 005D			csrch	equ	$5d
    49 = 006A			ramtop	equ	$6a
    50 = 00D4			fr0	equ	$d4
    51 = 00E0			fr1	equ	$e0
    52 = 00F2			cix	equ	$f2
    53 = 00F3			inbuff	equ	$f3
    54 				;flptr	equ	$fc
    55
    56 = 022B			srtimr	equ	$022b
    57 = 022F			sdmctl	equ	$022f
    58 = 0232			sskctl	equ	$0232
    59 = 0244			coldst	equ	$0244
    60 = 0270			paddl0	equ	$0270
    61 				;txtmsc	equ	$0294
    62 = 02A3			tabmap	equ	$02a3
    63 = 02B6			invflg	equ	$02b6
    64 = 02BE			shflok	equ	$02be
    65 = 02C4			color0	equ	$02c4
    66 = 02C8			color4	equ	$02c8
    67 = 02E0			runad	equ	$02e0
    68 = 02E2			initad	equ	$02e2
    69 = 02E5			memtop	equ	$02e5
    70 = 02E7			memlo	equ	$02e7
    71 = 02F2			ch1	equ	$02f2	; Prior keyboard qcode
    72 = 02FB			atachr	equ	$02fb
    73 = 02FC			ch	equ	$02fc
    74 = 02FD			fildat	equ	$02fd
    75 = 02FE			dspflg	equ	$02fe
    76
    77 = 0342			iccom	equ 	$0342	; IOCB0
    78 = 0344			icbadr	equ	$0344
    79 = 0348			icblen	equ	$0348
    80 = 034A			icax1	equ	$034a
    81 = 034B			icax2	equ	$034b
    82 = 034C			icax3	equ	$034c
    83 = 034D			icax4	equ	$034d
    84 = 034E			icax5	equ	$034e
    85 = 03F8			basicf	equ	$03f8
    86
    87
    88 = 0580			lbuff	equ	$0580	; fp ASCII buf from $580 to $5ff
    89 = D010			trig0	equ	$d010
    90 = D016			colpf0	equ	$d016
    91 = D01F			consol	equ	$d01f
    92
    93 = D200			audf0	equ	$d200
    94 = D20F			skctl	equ	$d20f
    95
    96 = D300			porta	equ 	$d300
    97 = D301			portb	equ	$d301
    98
    99 = D400			dmactl	equ	$d400
   100 = D40A			wsync	equ	$d40a
   101
   102 				;	floating point routines
   103 				;	-----------------------
   104 = D800			afp	equ	$d800
   105 = D8E6			fasc	equ	$d8e6
   106 = D9AA			ifp	equ	$d9aa
   107 = D9D2			fpi	equ	$d9d2
   108 				;fadd	equ	$da66
   109 				;fsub	equ	$da60
   110 				;fmul	equ	$dadb
   111 				;fdiv	equ	$db28
   112 				;log	equ	$decd
   113 				;log10	equ	$ded1
   114 				;exp10	equ	$ddcc
   115 				;plyevl	equ	$dd40
   116 				;zfr0	equ	$da44
   117 				;zf1	equ	$da46
   118 				;fld0r	equ	$dd89
   119 				;fld0p	equ	$dd8d
   120 				;fld1r	equ	$dd98
   121 				;fld1p	equ	$dd9c
   122 				;fst0r	equ	$dda7
   123 				;fst0p	equ	$ddab
   124 				;fmove	equ	$ddb6
   125 				;coldsv	equ	$e477
   126
   127 					.enum character
   128 = 002C				comma	  = ','
   129 = 001B				escape	  = $1b
   130 = 001C				up	  = $1c
   131 = 001D				down	  = $1d
   132 = 001E				left	  = $1e
   133 = 001F				right	  = $1f
   134 = 007E				backspace = $7e
   135 = 007D				clear	  = $7d
   136 = 009B				eol	  = $9b
   137 = 00FD				bell	  = $fd
   138 					.ende
   139
   140 					.enum cio_channel
   141 = 0010				factor	= $10		; Factor to multiply the channel number with for direct CIO calls
   142 = 0000				zero	= 0		; Used for editor
   143 = 0001				one	= 1		; Used for disk I/O
   144 = 0006				six	= 6		; User for screen
   145 = 0007				seven	= 7		; Used keyboard 
   146 					.ende
   147
   148 					.enum cio_command
   149 = 0003				open	= $03	; Open a specified device or file.
   150 = 0005				getrec	= $05	; Read a record from a specified device or file.
   151 = 0007				getchr	= $07	; Read character from specified device or file.
   152 = 0009				putrec	= $09 	; Write a record to a specified device or file.
   153 = 000B				putchr	= $0b	; Write character from specified device or file.
   154 = 000C				close	= $0c	; Close a specified device or file.
   155 = 0011				drawto	= $11	; Draw a line on the screen
   156 = 0012				fill	= $12	; Fill a screen area
   157 = 0025				point	= $25	; Point to a position within an open file
   158 = 0026				note	= $26	; Note the position within an open file
   159 					.ende
   160
   161 					.enum cio_mode
   162 = 0004				read	= $04	; Open a device or file for read operations.
   163 = 0008				write	= $08	; Open a device or file for write operations.
   164 = 000C				read_write = $0c; Open a device or file for read and write operations.
   165 					.ende
   166
   167 					.enum cio_error
   168 = 0080				break	= $80
   169 = 0088				eof	= $88
   170 					.ende
   171
   172 					.enum opcode
   173 = 00C1				cmp_izx	= $c1
   174 = 00A1				lda_izx	= $a1
   175 = 0081				sta_izx	= $81
   176 = 00A9				lda_imm	= $a9
   177 = 00AD				lda_abs	= $ad
   178 = 00AA				tax_	= $aa
   179 = 0061				adc_izx	= $61
   180 = 0085				sta_zp	= $85
   181 = 008D				sta_abs = $8d	; STA abs
   182 = 008E				stx_abs = $8e	; STX abs
   183 = 000A				asl_a	= $0a		; ASL A
   184 = 0008				php_	= $08		; PHP
   185 = 0018				clc_	= $18		; CLC
   186
   187 = 0020				jsr_abs	= $20		; JSR abs
   188 = 004C				jmp_abs	= $4c		; JMP abs
   189 = 0060				rts_	= $60		; RTS
   190 					.ende
   191 = E456			ciov	equ	$e456
   192
   193 					.macro m_info		; Prints location and siize of ranges like ".PROC", ".LOCAL"
   194 					.print ":1: " , :1, " - ", :1 + .len :1 -1, " (", .len :1,")"
   195 					.endm
   196
   197 					.macro m_align		; Fills with empty bytes instead of $ff
   198 				align_used_end
   199 					.align	:1,$00
   200 				align_end
   201 					.print "Aligning " , align_used_end, " - ", align_end, "(", align_end-align_used_end+1, " bytes free)"
   202 					.endm
   203
   204 					.macro m_assert_next	; Asserts the a fall-though ends up in the right location
   205 					.if :0 <> 1
   206 					.error "Wrong number of arguments"
   207 					.endif
   208 					.if * <> :1
   209 					.error "Fall-though to next label broken. Next label at ", *, " must be ", ":1" 
   210 					.endif
   211 					.endm
   212
   213 					.macro m_string		; Defines ACTION! type ASCII string constant with leading length byte
   214 					.byte [.len string]
   215 					.local string
   216 					.byte :1
   217 					.endl
   218 					.endm
   219
   220
   221 					.enum screen_definition
   222 = 0000				normal		= $00
   223 = 0080				inverse		= $80
   224 = 0028				line_width	= 40
   225 = 0022				screen_on	= $22
   226 = 0000				screen_off	= $00
   227 					.ende
   228
   229 					.macro m_statement
   230 					m_string :1
   231 					.byte :2
   232 					.word :3
   233 					.endm
    37 					icl	"ACTION.ROM.asm"
Source: ACTION.ROM.asm
     1 				;
     2 				;	ACTION.ROM
     3 				;
     4 				; This file is not part of the original distribution.
     5 				;
     6 				; This file is part of Action!.
     7 				;
     8 				; Action! is free software: you can redistribute it and/or modify
     9 				; it under the terms of the GNU General Public License as published by
    10 				; the Free Software Foundation, either version 3 of the License, or
    11 				; (at your option) any later version.
    12 				;
    13 				; Action! is distributed in the hope that it will be useful,
    14 				; but WITHOUT ANY WARRANTY; without even the implied warranty of
    15 				; MERCHANTABILITY or FITNESS FOR A PARTICULAR PURPOSE.  See the
    16 				; GNU General Public License for more details.
    17 				;
    18 				; You should have received a copy of the GNU General Public License
    19 				; along with Action!.  If not, see <http://www.gnu.org/licenses/>.
    20 				;
    21 				; @com.wudsn.ide.asm.mainsourcefile=ACTION.asm
    22
    23 					.enum rom	;Equates only used in ROM mode
    24
    25 				; Cartridge type that determines the bank ordering and bank identifiers according to
    26 				; http://atari800.cvs.sourceforge.net/viewvc/atari800/atari800/DOC/cart.txt
    27 				;
    28 				;+---------------------------------------------------------------------------+
    29 				;| Type 15: OSS one chip 16 KB cartridge                                     |
    30 				;+---------------------------------------------------------------------------+
    31 				;
    32 				; There are two types of OSS 16KB cartridges; this is the later, simpler one.
    33 				; Used by BASIC XL 1.03, Action! 3.6, MAC/65 1.1 and BASIC XE 4.1 (and possibly
    34 				; also by later versions of the above software).
    35 				; It consists of one 16 KB ROM chip.
    36 				; The cartridge occupies 8 KB of address space between $A000 and $BFFF. Its
    37 				; memory is divided into 4 banks, 4 KB each. Bank number 0 (the first one) is
    38 				; always mapped to $B000-$BFFF. Bank in $A000-$AFFF is selected by an access to
    39 				; $D500-$D5FF. Only bits 0 and 3 of address are significant:
    40 				; - A3=0, A0=0 - selects bank 1, bank id $00
    41 				; - A3=0, A0=1 - selects bank 3, bank id $01
    42 				; - A3=1, A0=0 - disables cartridge, bank id $08, enables computer's memory in address space between $A000 and $BFFF
    43 				; - A3=1, A0=1 - selects bank 2, bank id $09 
    44
    45 				; bank switching defs
    46 				;---------------------
    47 = B000			ml	=	$b000
    48 = A000			el	=	$a000
    49 = A000			ll	=	$a000
    50 = A000			cl	=	$a000
    51
    52 = D500			bank	=	$d500
    53 = 0009			bankmsk	=	%1001			; Only bit 3 and 0 are relevant
    54
    55 = 0003			ebank	=	3			; Editor bank, was 1 in original source
    56 = 0000			lbank	=	0			; Library bank
    57 = 0009			cbank	=	9			; Compiler bank
    58
    59 = 0A00			serial	=	$0a00			; ACTION 3.6 serial number word at $A2FA
    60 									; Normally $00 in the source and set before burning the ROM.
    61 					.ende
    62
    63 					.macro m_end_switched_bank
    64 				bank_used_end
    65 					.align	rom.:1+$0fff,$00	; Fill with empty bytes instead of $ff.
    66 				bank_end
    67 					.byte	rom.:2 & rom.bankmsk	; Bank identifier at end of bank.
    68 					.print "Ending switched bank :1/:2: " , bank_used_end, " - ", bank_end, "(", bank_end-bank_used_end+1, " bytes free)"
    69 					.endm
    38 					icl	"EDIT.DEF.asm"
Source: EDIT.DEF.asm
     1 				;
     2 				;	EDIT.DEF
     3 				;
     4 				; Copyright 1983 by Clinton W Parker.
     5 				; All Rights Reserved.
     6 				; Original last modified September 9, 1983.
     7 				;
     8 				; This file is part of Action!.
     9 				;
    10 				; Action! is free software: you can redistribute it and/or modify
    11 				; it under the terms of the GNU General Public License as published by
    12 				; the Free Software Foundation, either version 3 of the License, or
    13 				; (at your option) any later version.
    14 				;
    15 				; Action! is distributed in the hope that it will be useful,
    16 				; but WITHOUT ANY WARRANTY; without even the implied warranty of
    17 				; MERCHANTABILITY or FITNESS FOR A PARTICULAR PURPOSE.  See the
    18 				; GNU General Public License for more details.
    19 				;
    20 				; You should have received a copy of the GNU General Public License
    21 				; along with Action!.  If not, see <http://www.gnu.org/licenses/>.
    22 				;
    23 				; @com.wudsn.ide.asm.mainsourcefile=ACTION.asm
    24
    25 				; Define ramzap as required in the outer source file.
    26 				; If ramzap is not defined, no additional code is generated.
    27 				; If ramzap is 0, NOPs are generated that do not harm the program in RAM
    28 				; If ramzap is 1, zap code is generated that kills the program in RAM
    29 				;ramzap	equ	1	; to zap or not to zap, that is the question?
    30
    31 				; Page Zero defs
    32 				;----------------
    33 				; Alloc/Free defs, also used by compiler
    34 = 0080			afbase	equ	$80
    35 = 0082			aflast	equ	$82
    36 = 0084			afcur	equ	$84
    37 = 0086			afsize	equ	$86
    38 = 0088			afbest	equ	$88
    39 = 0088			props	equ	$88
    40 = 008A			afbsze	equ	$8a
    41 = 008A			op	equ	$8a
    42 = 008B			lsttoken equ	$8b	; prev. token value
    43
    44 				; current window data / comp. vars
    45 				;----------------------------------
    46 = 008C			sp	equ	$8c
    47 = 008D			choff	equ	$8d
    48 = 008E			lnum	equ	$8e
    49 = 008E			curproc equ	$8e	; 2 bytes
    50 = 008F			dirty	equ	$8f
    51 = 0090			top	equ	$90	; -> top line
    52 = 0092			bot	equ	$92	; -> bottom line
    53 = 0092			whaddr	equ	$92	; -> current DO frame
    54 = 0094			cur	equ	$94	; -> current line
    55 = 0096			x	equ	$96	; don't use in comp.
    56 = 0097			y	equ	$97	; don't use in comp.
    57 = 0098			nlines	equ	$98
    58 = 0098			chan	equ	$98	; current input file
    59 = 0099			ytop	equ	$99
    60 = 0099			defflg	equ	$99
    61 = 009A			indent	equ	$9a
    62 = 009A			stackptr equ	$9a	; op stack offset
    63
    64 = 009B			buf	equ	$9b	; -> edit buf
    65 = 009D			insert	equ	$9d	; insert/replace flag
    66 = 009E			delnxt	equ	$9e	; ->, USED BY LEX
    67
    68 				; arguments and temps
    69 				;---------------------
    70 = 00A0			args	equ	$a0
    71 = 00A0			arg0	equ	$a0
    72 = 00A1			arg1	equ	$a1
    73 = 00A2			arg2	equ	$a2
    74 = 00A3			arg3	equ	$a3
    75 = 00A4			arg4	equ	$a4
    76 = 00A5			arg5	equ	$a5
    77 = 00A6			arg6	equ	$a6
    78 = 00A7			arg7	equ	$a7
    79 = 00A8			arg8	equ	$a8
    80 = 00A9			arg9	equ	$a9
    81 = 00AA			arg10	equ	$aa
    82 = 00AB			arg11	equ	$ab
    83 = 00AC			arg12	equ	$ac
    84 = 00AD			arg13	equ	$ad
    85 = 00AE			arg14	equ	$ae
    86 = 00AF			arg15	equ	$af
    87
    88 				; compiler vars
    89 				;---------------
    90 = 00B0			stbase	equ	$b0	; s.t. base (page)
    91 = 00B1			stglobal equ	$b1	; qglobal hash table
    92 = 00B3			stlocal equ	$b3	; local hash table
    93 = 00B5			codeoff equ	$b5	; relocation offset
    94 = 00B7			device	equ	$b7	; default device
    95 = 00B8			qglobal equ	$b8	; qglobal/local flag
    96 = 00B9			stack	equ	$b9	; value stack
    97 = 00BB			frame	equ	$bb	; -> current frame
    98 = 00BD			symtab	equ	$bd	; -> next s.t. entry
    99 = 00BF			stmax	equ	$bf	; s.t. top (page)
   100 = 00C0			addr	equ	$c0	; token address
   101 = 00C2			token	equ	$c2	; token value
   102
   103 				; following defs can be used during
   104 				; program execution (user program)
   105 				;-----------------------------------
   106 = 00C3			dirtyf	equ	$c3
   107 = 00C4			spln	equ	$c4	; error char
   108 = 00C5			curln	equ	$c5	; error line
   109 = 00C7			curnxt	equ	$c7	; next error line
   110 = 00C9			nxtaddr equ	$c9	; next token address
   111
   112 						; note: $CA-$CD never referenced
   113
   114 = 00CE			stg2	equ	$ce	; only used if big s.t.
   115 = 00D0			arrayptr equ	$d0	; array mem. list
   116 = 00D2			spnxt	equ	$d2	; next error char
   117 = 00D3			nxttoken equ	$d3	; next token value
   118
   119
   120 				; ACTION! vars ($480 - $57D)
   121 				;----------------------------
   122 					.local vars
   123 = 0480			w1	equ	$0480	; window 1 data
   124 = 048F			top1	equ	$048f
   125 = 0490			chcvt	equ	$0490	; char convert
   126
   127 				; Compiler vars
   128 = 0491			codebase equ	$0491	; 2 bytes
   129 = 0493			codesize equ	$0493	; 2 bytes
   130 = 0495			stsp	equ	$0495	; s.t. size (pages)
   131
   132 = 0496			mpc	equ	$0496	; edit/mon flag
   133 = 0497			gbase	equ	$0497	; 2 bytes
   134 = 0499			type	equ	$0499
   135 = 049A			list	equ	$049a	; listing flag
   136 = 049B			numargs equ	$049b
   137 = 049C			cmdln	equ	$049c	; command line offset
   138 = 049D			param	equ	$049d
   139 = 049E			opmode	equ	$049e
   140 = 049F			curwdw	equ	$049f	; window memory offset
   141 = 04A0			cury	equ	$04a0	; current Y reg (0/1/unknown)
   142 = 04A1			lastch	equ	$04a1	; last char
   143 = 04A2			curch	equ	$04a2	; current char
   144 = 04A3			sparem	equ	$04a3	; -> spare mem
   145 = 04A5			numwd	equ	$04a5	; number of windows
   146 = 04A6			allocerr equ	$04a6	; INC on Alloc error
   147 = 04A7			delbuf	equ	$04a7	; 6 bytes
   148 = 04AD			frstchar equ	$04ad	; used for big s.t.
   149 = 04AE			taglist equ	$04ae	; 2 bytes
   150 				;chcvt1	equ	$04b0
   151 = 04B1			w2	equ	$04b1	; window 2 data
   152 = 04C0			bckgrnd equ	$04c0	; background color
   153 = 04C1			procsp	equ	$04c1	; Break stack pointer
   154 = 04C2			argbytes equ	$04c2
   155 = 04C3			trace	equ	$04c3	; trace flag
   156 = 04C4			bigst	equ	$04c4	; big s.t. flag
   157
   158 							; note: $4C5 available
   159 					.endl		; end of vars
   160
   161
   162 = 04C6			jmps	equ	$04c6	; see EDIT.CAR
   163
   164 				; Jump table goes to $4FF
   165 				;-------------------------
   166 = 04C6			segend	equ	$04c6
   167 = 04C9			curbank equ	$04c9
   168 = 04CA			stmask	equ	$04ca
   169 = 04CB			error	equ	$04cb
   170 = 04CE			wsize	equ	$04ce
   171 = 04CF			linemax equ	$04cf
   172 				;chcvt2	equ	$04d0
   173 = 04D1			expend	equ	$04d1
   174 = 04D4			dclend	equ	expend+3
   175 = 04D7			cgend	equ	dclend+3
   176 = 04DA			arend	equ	cgend+3
   177 = 04DD			splend	equ	arend+3
   178 = 04E0			alarm	equ	splend+3
   179 = 04E3			eolch	equ	alarm+3
   180 = 04E4			lsh	equ	eolch+1
   181
   182 = 04F0			chcvt3	equ	$04f0
   183 = 04F1			tvdisp	equ	$04f1
   184 = 04F2			disptb	equ	$04f2
   185 = 04F8			smtend	equ	$04f8
   186 = 04FE			stmradr equ	$04fe
   187
   188 = 0500			subbuf	equ	$0500		; 40 bytes
   189 = 0528			findbuf equ	$0528		; 40 bytes
   190 = 0550			numbuf	equ	$0550		; 24 bytes
   191 = 0577			stkbase equ	$0577
   192
   193 = 0580			opstack equ	$580		; 16 bytes
   194
   195 				; $580 TO ? is used for output of
   196 				; FASC routine.  Should not exceed
   197 				; 16 bytes, $58F (worst case?).
   198 				;---------------------------------
   199 = 0590			tempbuf equ	$0590	; 40 bytes
   200 = 05B8			argtypes equ	$05b8	;  8 bytes
   201 = 05C0			eof	equ	$05c0	;  8 bytes
   202 = 05C8			inbuf	equ	$05c8	; 36 bytes
   203 = 05EC			abt	equ	$05ec	;  4 bytes
   204 = 05F0			temps	equ	$05f0	; 16 bytes
   205
   206
   207 				; window record offsets
   208 				;-----------------------
   209 = 0000			wsp	equ	0
   210 				;wch	equ	1
   211 				;wlnum	equ	2
   212 				;wdirty	equ	3
   213 				;wtop	equ	4
   214 				;wbot	equ	6
   215 = 0008			wcur	equ	8
   216 				;wx	equ	10
   217 				;wy	equ	11
   218 = 000C			wnlns	equ	12	; num lines
   219 = 000D			wytop	equ	13
   220 				;windent equ	14
   221
    39
    40 					opt	f-
    41 					org	rom.ml		; Main bank at $b000
    42 					opt	f+
    43
    44 B000 36			version	.byte	$36		; Version 3.6 in BCD format
    45 B001 01 17 84		date	.byte	$01,$17,$84	; Assemble date in American date BCD format $DD,$MM,$YY
    46
    47
    48 B004				icl	"main/MAIN.IO.asm"
Source: MAIN.IO.asm
     1 				;
     2 				;	MAIN.IO
     3 				;
     4 				; Copyright 1983 by Clinton W Parker.
     5 				; All Rights Reserved.
     6 				; Original last modified September 9, 1983.
     7 				;
     8 				; This file is part of Action!.
     9 				;
    10 				; Action! is free software: you can redistribute it and/or modify
    11 				; it under the terms of the GNU General Public License as published by
    12 				; the Free Software Foundation, either version 3 of the License, or
    13 				; (at your option) any later version.
    14 				;
    15 				; Action! is distributed in the hope that it will be useful,
    16 				; but WITHOUT ANY WARRANTY; without even the implied warranty of
    17 				; MERCHANTABILITY or FITNESS FOR A PARTICULAR PURPOSE.  See the
    18 				; GNU General Public License for more details.
    19 				;
    20 				; You should have received a copy of the GNU General Public License
    21 				; along with Action!.  If not, see <http://www.gnu.org/licenses/>.
    22 				;
    23 				; @com.wudsn.ide.asm.mainsourcefile=../ACTION.asm
    24
    25 B004				.proc mainio
    26
    27 				;	Open(device, name, mode, opt)
    28 				;	-----------------------------
    29 				; returns status
    30
    31 B004			open	.proc	
    32 B004 86 A5			stx	arg5
    33 B006 84 A6			sty	arg6
    34 B008 A0 03			ldy	#cio_command.open
    35 B00A D0 2E			bne	xiostr
    36 					.endp
    37
    38
    39 				;	Print(device, str)
    40 				;	------------------
    41 B00C			print	.proc
    42 B00C 86 A5			stx	arg5
    43 B00E 84 A6			sty	arg6
    44 B010 A2 00			ldx	#0
    45 B012 86 A3			stx	arg3		;Set AUX1=0
    46 B014 A0 09			ldy	#cio_command.putrec
    47 B016 20 3A B0			jsr	xiostr
    48 B019 D0 0A			bne	print1
    49
    50 B01B A9 0B			lda	#cio_command.putchr
    51 B01D 9D 42 03			sta	$0342,x
    52 B020 A9 9B			lda	#eol
    53 B022 4C 56 E4			jmp	ciov
    54
    55 B025 60			print1	rts
    56 					.endp
    57
    58
    59 				;	Close(device)
    60 				;	-------------
    61 B026			close	.proc
    62 					.if	.def ramzap
    63
    64 B026 A2 B0			ldx	#>rom.ml	; note: address must be non-zero to
    65 B028 86 A6			stx	arg6		; fake out zero check in XIOstr
    66
    67 					.if	ramzap
    68 B02A 91 A5			 sta	(arg5),y
    69 					.else	
    70 					 nop	
    71 					 nop	
    72 					.endif	
    73
    74 					.endif
    75
    76 B02C A0 0C			ldy	#cio_command.close
    77 B02E D0 04			bne	input.input1	; unconditional branch
    78 					.endp
    79
    80 B030			input	.proc			; Input(device, str)
    81 B030 84 A6			sty	arg6		; Store pointer in <X,Y> in <adr5;adr>
    82 B032 A0 05			ldy	#cio_command.getrec
    83 B034 86 A5		input1	stx	arg5
    84 B036 A2 00			ldx	#0
    85 B038 86 A3			stx	arg3		;Set AUX1=0
    86 B03A				m_assert_next xiostr	; falls through to xiostr
Macro: M_ASSERT_NEXT [Source: ACTION.DEF.asm]
Source: MAIN.IO.asm
    87 					.endp
    88
    89
    90 B03A			xiostr	.proc			; XIOstr(device,,cmd,aux1,aux2,str)
    91 B03A 0A				asl
    92 B03B 0A				asl
    93 B03C 0A				asl
    94 B03D 0A				asl
    95 B03E AA				tax	
    96 B03F 98				tya	
    97 B040 9D 42 03			sta	iccom,x		; command
    98 B043 A5 A3			lda	arg3
    99 B045 F0 0A			beq	??xs1
   100 B047 9D 4A 03			sta	icax1,x		; aux1
   101 B04A A5 A4			lda	arg4
   102 B04C 9D 4B 03			sta	icax2,x		; aux2
   103 B04F A9 00			lda	#0
   104 B051 A8			??xs1	tay
   105 B052 9D 49 03			sta	icblen+1,x
   106
   107 					.if	.not .def ramzap
   108 					lda	iccom,x
   109 					cmp	#cio_command.close ; close does not require a file spec
   110 					beq	no_file_spec
   111 					.endif
   112 					
   113 B055 B1 A5			lda	(arg5),y
   114 B057 9D 48 03			sta	icblen,x	; size
   115 B05A F0 C9			beq	print.print1	; return
   116
   117 B05C 18				clc			; Set icbadr to <arg5/agr>+1 to skip length byte
   118 B05D A5 A5			lda	arg5
   119 B05F 69 01			adc	#1
   120 B061 9D 44 03			sta	icbadr,x	; buf
   121 B064 A5 A6			lda	arg6
   122 B066 69 00			adc	#0
   123 B068 9D 45 03			sta	icbadr+1,x
   124 B06B			no_file_spec
   125 B06B 4C 56 E4			jmp	ciov
   126 					.endp
   127
   128
   129 B06E			output	.proc			; Output(device, str)
   130 B06E 84 A6			sty	arg6
   131 B070 A0 0B			ldy	#cio_command.putchr
   132 B072 D0 C0			bne	input.input1	; unconditional branch
   133 					.endp
   134
   135
   136 B074			dspstr	.proc			; DspStr(prompt, str, invert)
   137 B074 84 AC			sty	arg12
   138 B076 A4 A3			ldy	arg3
   139 B078 84 AD			sty	arg13
   140 B07A A0 00			ldy	#0
   141 B07C 84 A3			sty	arg3
   142 B07E A4 A4			ldy	arg4		; Normal or inverse
   143 B080 20 05 B2			jsr	putstr
   144
   145 B083 A5 A6			lda	arg6		; PutStr size
   146 B085 18				clc	
   147 B086 65 52			adc	lmargin
   148 B088 85 55			sta	colcrs
   149 B08A 20 5F B3			jsr	screen.scrrt
   150
   151 B08D A0 00			ldy	#0
   152 B08F B1 AC			lda	(arg12),y
   153 B091 F0 13			beq	??ds2
   154 B093 85 A3		 	sta	arg3
   155 B095 84 A4			sty	arg4
   156
   157 B097 E6 A4		??ds1	inc	arg4
   158 B099 A4 A4			ldy	arg4
   159 B09B B1 AC			lda	(arg12),y
   160 B09D 45 A2			eor	arg2
   161 B09F 20 2B B3			jsr	screen.scrch
   162 B0A2 C6 A3			dec	arg3
   163 B0A4 D0 F1			bne	??ds1
   164 B0A6 60			??ds2	rts	
   165 					.endp
   166
   167 B0A7			rdbuf	.proc			; RdBuf(device)
   168 				; INC COLOR4			;TODO Remove NOPs
   169 B0A7 EA				nop	
   170 B0A8 EA				nop	
   171 B0A9 EA				nop	
   172 B0AA A0 00			ldy	#0
   173 B0AC AA				tax	
   174 B0AD A9 F0			lda	#240		; Maximum line size
   175 B0AF 91 9B			sta	(buf),y
   176 B0B1 8A				txa	
   177 B0B2 A6 9B			ldx	buf
   178 B0B4 A4 9C			ldy	buf+1
   179 B0B6 20 30 B0		inputs	jsr	input
   180 B0B9 84 A0			sty	arg0
   181 B0BB BD 48 03			lda	icblen,x	; Actual line size
   182 B0BE F0 03			beq	??rb1
   183 B0C0 38				sec	
   184 B0C1 E9 01			sbc	#1
   185 B0C3 A0 00		??rb1	ldy	#0		; Store actual line size-1
   186 B0C5 91 A5			sta	(arg5),y
   187 B0C7 A4 A0			ldy	arg0
   188 B0C9 60				rts	
   189 					.endp
   190
   191
   192 B0CA			wrtbuf	.proc			; WrtBuf(device)
   193 B0CA A6 9B			ldx	buf
   194 B0CC A4 9C			ldy	buf+1
   195 B0CE 4C 0C B0			jmp	print
   196 					.endp
   197
   198
   199
   200 B0D1			rstcur	.proc			; RstCur() - Restore cursor for current window
   201 B0D1 AC 9F 04			ldy	vars.curwdw
   202 B0D4 B9 88 04			lda	vars.w1+wcur,y
   203 B0D7 85 94			sta	cur
   204 B0D9 B9 89 04			lda	vars.w1+wcur+1,y
   205 B0DC 85 95			sta	cur+1
   206 B0DE 4C C2 B2			jmp	ldbuf
   207 					.endp
   208
   209 B0E1			syserr	.proc			; SysErr(,,errnum)
   210 B0E1 20 39 B1			jsr	dspon
   211 B0E4 98				tya
   212
   213 					.if	feature_error_texts = 1	;TODO
   214 					pha
   215 				;	brk
   216 				;	brk
   217 					jsr	compiler.error_texts.get_error_text
   218
   219 					lda	#screen_definition.normal
   220 					sta	arg4
   221
   222 					ldy	arg0		; String
   223 					lda	arg1
   224 					sta	arg3
   225
   226 					lda	#<sermsg	; Prompt
   227 					ldx	#>sermsg
   228 					jsr	dspstr
   229 					pla
   230 					.endif
   231 					
   232 B0E5 A2 00			ldx	#0
   233 B0E7 20 0F B1			jsr	ctostr
   234 B0EA 20 8F B2			jsr	cmdcol
   235 B0ED A9 80			lda	#screen_definition.inverse
   236 B0EF 85 A4			sta	arg4
   237 B0F1 A9 05			lda	#>numbuf	; String
   238 B0F3 85 A3			sta	arg3
   239 B0F5 A0 50			ldy	#<numbuf
   240 B0F7 A9 07			lda	#<sermsg	; Prompt
   241 B0F9 A2 B1			ldx	#>sermsg
   242 B0FB 20 74 B0			jsr	dspstr
   243
   244
   245
   246 B0FE 20 0C B3			jsr	rstcsr
   247 B101 20 A4 B2			jsr	rstcol
   248 B104 4C 57 B3			jmp	screen.scrbell
   249 					.endp
   250
   251 B107			sermsg	m_string 'Error: '
Macro: M_STRING [Source: ACTION.DEF.asm]
     1 B107 07				.byte [.len string]
     3 B108 45 72 72 6F 72 3A + 	.byte 'Error: '
Source: MAIN.IO.asm
   252
   253
   254 B10F			ctostr	.proc			; CToStr(num) - Cardinal to string
   255 B10F 85 D4			sta	fr0
   256 B111 86 D5			stx	fr0+1
   257 B113 20 AA D9			jsr	ifp		; Cardinal to real
   258 B116				m_assert_next rtostr	; falls though to rtostr
Macro: M_ASSERT_NEXT [Source: ACTION.DEF.asm]
Source: MAIN.IO.asm
   259 					.endp
   260
   261 B116			rtostr	.proc			; RToStr() - Real to string, real in FR0
   262 B116 20 E6 D8			jsr	fasc
   263 B119 A0 FF			ldy	#$ff
   264 B11B A2 00			ldx	#0
   265 B11D C8			??rts1	iny	
   266 B11E E8				inx	
   267 B11F B1 F3			lda	(inbuff),y
   268 B121 9D 50 05			sta	numbuf,x
   269 B124 10 F7			bpl	??rts1
   270 B126 49 80			eor	#$80
   271 B128 9D 50 05			sta	numbuf,x
   272 B12B 8E 50 05			stx	numbuf
   273 B12E 60				rts	
   274 					.endp
   275
   276
   277 B12F			dspoff	.proc			;DspOff()
   278 B12F AD F1 04			lda	tvdisp
   279 B132 8D 2F 02			sta	sdmctl
   280 B135 8D 00 D4			sta	dmactl
   281 B138 60				rts	
   282 					.endp
   283
   284
   285 B139			dspon	.proc			;DspOn()
   286 B139 A9 22			lda	#screen_definition.screen_on
   287 B13B 8D 2F 02			sta	sdmctl
   288 B13E 8D 00 D4			sta	dmactl
   289 B141 AD C0 04			lda	vars.bckgrnd	; background color
   290 B144 8D C8 02			sta	color4		; restore background
   291 B147 60				rts	
   292 					.endp
   293
   294 B148			printc	.proc			;PrintC(num)
   295 B148 20 0F B1			jsr	ctostr
   296 B14B A5 B7		pnum	lda	device
   297 B14D A2 50			ldx	#<numbuf
   298 B14F A0 05			ldy	#>numbuf
   299 B151 4C 6E B0			jmp	output
   300 					.endp
   301
   302 B154			openchan .proc		;	OpenChan(mode)
   303 B154 48				pha	
   304 B155 A5 98			lda	chan
   305 B157 20 26 B0			jsr	close
   306 B15A 68				pla	
   307 B15B 85 A3			sta	arg3
   308 							; check for default device
   309 B15D A9 3A			lda	#':'
   310 B15F A0 02			ldy	#2
   311 B161 D1 C9			cmp	(nxtaddr),y
   312 B163 F0 2C			beq	??oc2
   313 B165 C8				iny	
   314 B166 D1 C9			cmp	(nxtaddr),y
   315 B168 F0 27			beq	??oc2
   316 							; stuff in D: for device
   317 B16A 18				clc	
   318 B16B A5 C9			lda	nxtaddr
   319 B16D 69 02			adc	#2
   320 B16F 85 D4			sta	fr0
   321 B171 A5 CA			lda	nxtaddr+1
   322 B173 69 00			adc	#0
   323 B175 85 D5			sta	fr0+1
   324
   325 B177 A0 00			ldy	#0
   326 B179 B1 C9			lda	(nxtaddr),y	; add 2 to length of string
   327 B17B 69 02			adc	#2		;  so we can insert 'D:'
   328 B17D 91 C9			sta	(nxtaddr),y
   329 B17F A8				tay	
   330 B180 B1 C9		??oc1	lda	(nxtaddr),y	; move string up...
   331 B182 91 D4			sta	(fr0),y
   332 B184 88				dey	
   333 B185 D0 F9			bne	??oc1
   334 B187 C8				iny	
   335 B188 A9 44			lda	#'D'
   336 B18A 91 C9			sta	(nxtaddr),y
   337 B18C C8				iny	
   338 B18D A9 3A			lda	#':'
   339 B18F 91 C9			sta	(nxtaddr),y
   340
   341 B191 A5 98		??oc2	lda	chan
   342 B193 A6 C9			ldx	nxtaddr
   343 B195 A4 CA			ldy	nxtaddr+1
   344 B197 20 04 B0			jsr	open
   345 B19A 10 03			bpl	printbuf
   346 B19C 4C 83 B8			jmp	mainbnk.splerr	; oopps error in open
   347 					.endp
   348
   349
   350 B19F			printbuf .proc			;PrintBuf()
   351 B19F AD 9A 04			lda	vars.list
   352 B1A2 D0 47			bne	rtocar.htcr1	; return
   353 B1A4 4C CA B0			jmp	wrtbuf
   354 					.endp
   355
   356 B1A7			htocar	.proc			;HToCar(buf,index)
   357 B1A7 84 F2			sty	cix
   358 B1A9 85 A1			sta	arg1
   359 B1AB 86 A2			stx	arg2
   360 B1AD A9 00			lda	#0
   361 B1AF 85 D4			sta	fr0
   362 B1B1 85 D5			sta	fr0+1
   363
   364 B1B3 A4 F2		??htc1	ldy	cix
   365 B1B5 B1 A1			lda	(arg1),y
   366 B1B7 38				sec	
   367 B1B8 E9 30			sbc	#'0'
   368 B1BA 30 29			bmi	rtocar.htcrtn
   369 B1BC C9 0A			cmp	#10
   370 B1BE 30 0A			bmi	??htcok
   371 B1C0 C9 11			cmp	#17
   372 B1C2 30 21			bmi	rtocar.htcrtn
   373 B1C4 E9 07			sbc	#7
   374 B1C6 C9 10			cmp	#16
   375 B1C8 10 1B			bpl	rtocar.htcrtn
   376
   377 B1CA 85 A5		??htcok	sta	arg5
   378 B1CC A5 D4			lda	fr0
   379 B1CE A6 D5			ldx	fr0+1
   380 B1D0 A0 04			ldy	#4
   381 B1D2 20 BE B5			jsr	mainmsc.lsh1
   382 B1D5 18				clc	
   383 B1D6 65 A5			adc	arg5
   384 B1D8 85 D4			sta	fr0
   385 B1DA 86 D5			stx	fr0+1
   386 B1DC E6 F2			inc	cix
   387 B1DE D0 D3			bne	??htc1		; unconditional branch
   388 					.endp
   389
   390 B1E0			rtocar	.proc			;RToCar() - Real to cardinal
   391 B1E0 20 D2 D9			jsr	fpi
   392 B1E3 B0 07			bcs	??rcerr
   393
   394 B1E5 A5 D4		htcrtn	lda	fr0
   395 B1E7 A6 D5			ldx	fr0+1
   396 B1E9 A4 F2			ldy	cix
   397 B1EB 60			htcr1	rts	
   398
   399 B1EC A0 09		??rcerr	ldy	#compiler.errors.conster
   400 B1EE 4C 83 B8			jmp	mainbnk.splerr
   401 					.endp
   402
   403 B1F1			storeal	.proc			;SToReal(str, index) - String to real
   404 B1F1 84 F2			sty	cix
   405 B1F3 85 F3			sta	inbuff
   406 B1F5 86 F4			stx	inbuff+1
   407 B1F7 4C 00 D8			jmp	afp
   408 					.endp
   409
   410 B1FA			putsp	.proc			;PutSp()
   411 B1FA A0 20			ldy	#space
   412 B1FC D0 02			bne	putchar
   413 					.endp
   414
   415 B1FE			puteol	.proc			;PutEOL()
   416 B1FE A0 9B			ldy	#eol
   417 					.endp
   418
   419 B200			putchar	.proc			;PutChar(,,char)
   420 B200 A5 B7			lda	device
   421 B202 4C 2E B3			jmp	screen.scrch.scrchar
   422 					.endp
   423
   424
   425 				;	PutStr(str, invert, offset)
   426 				;	---------------------------
   427 B205			putstr	.proc			; Bypasses E: handler
   428
   429 = 00A6				str_ptr = arg6
   430 = 00A0				sm_ptr = arg0
   431
   432 B205 85 A6			sta	str_ptr
   433 B207 86 A7			stx	str_ptr+1
   434 B209 84 A2			sty	arg2		;screen_definition.normal/inverse
   435
   436 B20B 38				sec	
   437 B20C 65 A3			adc	arg3
   438 B20E 85 A4			sta	arg4
   439 B210 90 01			bcc	??ps1
   440 B212 E8				inx	
   441 B213 86 A5		??ps1	stx	arg5
   442
   443 B215 20 ED B2			jsr	dsploc
   444 B218 20 03 B3			jsr	zapcsr
   445
   446 B21B A0 27			ldy	#screen_definition.line_width-1
   447 B21D A5 A2			lda	arg2
   448 B21F 91 A0		??ps2	sta	(sm_ptr),y	; clear line
   449 B221 88				dey	
   450 B222 10 FB			bpl	??ps2
   451
   452 B224 18				clc			; handle left margin
   453 B225 A5 A0			lda	sm_ptr
   454 B227 65 52			adc	lmargin
   455 B229 85 A0			sta	sm_ptr
   456 B22B 90 02			bcc	??ps3
   457 B22D E6 A1			inc	sm_ptr+1
   458
   459 B22F C8			??ps3	iny			; sets Y to 0
   460 B230 18				clc	
   461 B231 B1 A6			lda	(str_ptr),y
   462 B233 E5 A3			sbc	arg3
   463 B235 90 51			bcc	??ps10		; no chars
   464
   465 B237 85 A6			sta	str_ptr
   466 B239 A8				tay	
   467 B23A A9 00			lda	#0
   468 B23C 85 A7			sta	str_ptr+1
   469
   470 B23E 38				sec	
   471 B23F A5 53			lda	rmargin
   472 B241 E5 52			sbc	lmargin
   473 B243 C5 A6			cmp	str_ptr
   474 B245 F0 06			beq	??ps3a		; handle EOL char
   475 B247 B0 08			bcs	??ps4		; length ok
   476
   477 B249 85 A6			sta	str_ptr
   478 B24B A4 A6			ldy	str_ptr		; length too long
   479 B24D A9 80		??ps3a	lda	#$80
   480 B24F 85 A7			sta	str_ptr+1
   481
   482 B251 A5 A2		??ps4	lda	arg2
   483 B253 51 A4			eor	(arg4),y
   484 B255 48				pha	
   485 B256 29 60			and	#$60
   486 B258 AA				tax	
   487 B259 68				pla	
   488 B25A 29 9F			and	#$9f
   489 B25C 1D 90 04			ora	vars.chcvt,x
   490 B25F 91 A0			sta	(sm_ptr),y
   491 B261 88				dey	
   492 B262 10 ED			bpl	??ps4
   493
   494 B264 A4 A6			ldy	str_ptr
   495 B266 A5 A7			lda	str_ptr+1
   496 B268 D0 0D			bne	??ps6
   497 B26A A5 A2			lda	arg2
   498 B26C D0 0D			bne	??ps7		; no EOL char if inverted
   499 B26E C8				iny	
   500 B26F AD E3 04		??ps5	lda	eolch
   501 B272 91 A0			sta	(sm_ptr),y
   502 B274 4C 7B B2			jmp	??ps7
   503
   504 B277 51 A0		??ps6	eor	(sm_ptr),y
   505 B279 91 A0			sta	(sm_ptr),y
   506
   507 B27B A5 A3		??ps7	lda	arg3
   508 B27D F0 08			beq	??ps9
   509 B27F A0 00		??ps8	ldy	#0
   510 B281 B1 A0			lda	(sm_ptr),y
   511 B283 49 80			eor	#screen_definition.inverse
   512 B285 91 A0			sta	(sm_ptr),y
   513 B287 60			??ps9	rts	
   514
   515 B288 A5 A3		??ps10	lda	arg3
   516 B28A D0 F3			bne	??ps8
   517 B28C A8				tay	
   518 B28D F0 E0			beq	??ps5		; unconditional branch
   519 					.endp
   520
   521
   522 				;	CmdCol()
   523 				;	--------
   524 B28F			cmdcol	.proc
   525 B28F 20 9B B2			jsr	savecol
   526 B292 20 0C B3			jsr	rstcsr
   527 B295 AC 9C 04			ldy	vars.cmdln
   528 B298 84 54			sty	rowcrs
   529 B29A 60				rts	
   530 					.endp
   531
   532
   533 				;	SaveCol()
   534 				;	---------
   535 B29B			savecol	.proc
   536 B29B A5 54			lda	rowcrs
   537 B29D 85 97			sta	y
   538 B29F A5 55			lda	colcrs
   539 B2A1 85 96			sta	x
   540 B2A3 60				rts	
   541 					.endp
   542
   543
   544 				;	RstCol()
   545 				;	--------
   546 B2A4			rstcol	.proc
   547 B2A4 A5 97			lda	y
   548 B2A6 85 54			sta	rowcrs
   549 B2A8 A5 96			lda	x
   550 B2AA 85 55			sta	colcrs
   551 B2AC 20 03 B3			jsr	zapcsr
   552 B2AF 20 5B B3		lftrt	jsr	screen.scrlft
   553 B2B2 4C 5F B3			jmp	screen.scrrt
   554 					.endp
   555
   556
   557 				;	ChkCur()
   558 				;	--------
   559 B2B5			chkcur	.proc
   560 B2B5 A5 95			lda	cur+1
   561 B2B7 D0 08			bne	??ccret
   562 B2B9 A5 90		ldtop	lda	top
   563 B2BB 85 94			sta	cur
   564 B2BD A5 91			lda	top+1
   565 B2BF 85 95			sta	cur+1
   566 B2C1 60			??ccret	rts	
   567 					.endp
   568
   569
   570 				;	LdBuf() load buf
   571 				;	----------------
   572 B2C2			ldbuf	.proc
   573 B2C2 20 B5 B2			jsr	chkcur
   574 B2C5 D0 04			bne	??ldb0
   575 B2C7 A8				tay	
   576 B2C8 91 9B			sta	(buf),y
   577 B2CA 60				rts	
   578
   579 B2CB 20 E8 B5		??ldb0	jsr	mainmsc.editor.curstr
   580
   581 B2CE A0 00		ldbuf1	ldy	#0
   582 B2D0 B1 A0			lda	(arg0),y
   583 B2D2 91 9B			sta	(buf),y
   584 B2D4 A8				tay	
   585
   586 B2D5 B1 A0		??ldb1	lda	(arg0),y
   587 B2D7 91 9B			sta	(buf),y
   588 B2D9 88				dey	
   589 B2DA D0 F9			bne	??ldb1
   590 B2DC 60				rts	
   591 					.endp
   592
   593
   594 				;	DspBuf() - display buffer
   595 				;	-------------------------
   596 B2DD			dspbuf	.proc	; IN: <bug,buf+1>=buffer address
   597 B2DD 18				clc	
   598 B2DE A5 9A			lda	indent
   599 B2E0 65 8D			adc	choff
   600 B2E2 85 A3			sta	arg3
   601 B2E4 A0 00			ldy	#screen_definition.normal
   602 B2E6 A5 9B			lda	buf
   603 B2E8 A6 9C			ldx	buf+1
   604 B2EA 4C 05 B2			jmp	putstr
   605 					.endp
   606
   607
   608
   609 				;	DspLoc() get address of display
   610 				;	-------------------------------
   611 B2ED			dsploc	.proc	; OUT: <arg0/arg1>=address of display row in rowcrs
   612 B2ED A5 58			lda	savmsc
   613 B2EF A6 59			ldx	savmsc+1
   614 B2F1 A4 54			ldy	rowcrs
   615 B2F3 F0 09			beq	??dlocrt
   616 B2F5 18			??dloc1	clc	
   617 B2F6 69 28			adc	#screen_definition.line_width
   618 B2F8 90 01			bcc	??dloc2
   619 B2FA E8				inx	
   620 B2FB 88			??dloc2	dey	
   621 B2FC D0 F7			bne	??dloc1
   622
   623 B2FE			??dlocrt
   624 B2FE 85 A0			sta	arg0
   625 B300 86 A1			stx	arg1
   626 B302 60				rts	
   627 					.endp
   628
   629
   630 				;	ZapCsr() get rid of old cursor
   631 				;	------------------------------
   632 B303			zapcsr	.proc
   633 B303 A9 5D			lda	#<csrch
   634 B305 85 5E			sta	oldadr
   635 B307 A9 00			lda	#>csrch
   636 B309 85 5F			sta	oldadr+1
   637 B30B 60				rts	
   638 					.endp
   639
   640
   641 				;	RstCsr() restore char under Csr
   642 				;	-------------------------------
   643 B30C			rstcsr	.proc	
   644 B30C A0 00			ldy	#0
   645 B30E A5 5D			lda	oldchr
   646 B310 91 5E			sta	(oldadr),y
   647 B312 60				rts	
   648 					.endp
   649
   650 					.endp		; end of mainio
    49
    50 B313 A6 A0		propid	ldx	$a0		; $A6 $A0 marker
    51
    52 B315				icl	"main/SCREEN.MAC.asm"
Source: SCREEN.MAC.asm
     1 				;
     2 				;	SCREEN.MAC
     3 				;
     4 				; Copyright 1982 by Clinton W Parker.
     5 				; All Rights Reserved.
     6 				; Original last modified October 18, 1982.
     7 				;
     8 				; This file is part of Action!.
     9 				;
    10 				; Action! is free software: you can redistribute it and/or modify
    11 				; it under the terms of the GNU General Public License as published by
    12 				; the Free Software Foundation, either version 3 of the License, or
    13 				; (at your option) any later version.
    14 				;
    15 				; Action! is distributed in the hope that it will be useful,
    16 				; but WITHOUT ANY WARRANTY; without even the implied warranty of
    17 				; MERCHANTABILITY or FITNESS FOR A PARTICULAR PURPOSE.  See the
    18 				; GNU General Public License for more details.
    19 				;
    20 				; You should have received a copy of the GNU General Public License
    21 				; along with Action!.  If not, see <http://www.gnu.org/licenses/>.
    22 				;
    23 				; @com.wudsn.ide.asm.mainsourcefile=../ACTION.asm
    24
    25 B315				.proc screen
    26
    27 B315			scrinit	.proc	
    28 B315 A9 00			lda	#cio_channel.zero
    29 B317 20 26 B0			jsr	mainio.close		; close #0, sets X to 0
    30 B31A A9 0C			lda	#cio_mode.read_write
    31 B31C 85 A3			sta	arg3
    32 B31E A9 00			lda	#cio_channel.zero
    33 B320 A2 27			ldx	#<scred
    34 B322 A0 B3			ldy	#>scred
    35 B324 4C 04 B0			jmp	mainio.open
    36
    37 B327			scred	m_string 'E:'			; Action! string sytax with leading length
Macro: M_STRING [Source: ACTION.DEF.asm]
     1 B327 02				.byte [.len string]
     3 B328 45 3A			.byte 'E:'
Source: SCREEN.MAC.asm
    38 B32A 9B				.byte character.eol		; CIO termintion character
    39
    40 					.endp
    41
    42
    43 				;	 ScrCh(char)
    44 				;	------------
    45 				; outputs char to screen.  Char passed in A reg.
    46 				; Control characters are ignored.
    47
    48 B32B			scrch	.proc	
    49 B32B A8				tay	
    50 B32C A9 00			lda	#0
    51 B32E A2 01		scrchar	ldx	#1
    52 B330 D0 04			bne	putch.putch1
    53 					.endp
    54
    55
    56 				;	PutCh(char)
    57 				;	-----------
    58 				; outputs char to screen.  Char passed in A reg.
    59 				; Processes control characters.
    60
    61 B332			putch	.proc	
    62 B332 A8				tay	
    63 B333 A9 00			lda	#0
    64 B335 AA				tax	
    65 B336 8E FE 02		putch1	stx	dspflg
    66 B339 0A				asl
    67 B33A 0A				asl
    68 B33B 0A				asl
    69 B33C 0A				asl
    70 B33D AA				tax	
    71 B33E A9 0B			lda	#cio_command.putchr
    72 B340 9D 42 03		putch2	sta	iccom,x		; ICCOM
    73 B343 A9 00			lda	#0
    74 B345 9D 48 03			sta	icblen,x	; ICBLL
    75 B348 9D 49 03			sta	icblen+1,x	; ICBLH
    76 B34B 98				tya	
    77 B34C 4C 56 E4			jmp	ciov		; CIOV
    78 					.endp
    79
    80 				;	ScrUp() - Move cursor up one
    81 				;	----------------------------
    82 B34F			scrup	.proc
    83 B34F A9 1C			lda	#character.up
    84 B351 D0 DF			bne	putch
    85 					.endp
    86
    87
    88 				;	ScrDwn() - Move cursor down one
    89 				;	-------------------------------
    90 B353			scrdwn	.proc
    91 B353 A9 1D			lda	#character.down
    92 B355 D0 DB			bne	putch
    93 					.endp
    94
    95
    96 				;	ScrBell() - Bell Char
    97 				;	---------------------
    98 B357			scrbell	.proc
    99 B357 A9 FD			lda	#character.bell
   100 B359 D0 D7			bne	putch
   101 					.endp
   102
   103
   104 				;	ScrLft() - Move cursor left one
   105 				;	-------------------------------
   106 B35B			scrlft	.proc
   107 B35B A9 1E			lda	#character.left
   108 B35D D0 D3			bne	putch
   109 					.endp
   110
   111
   112 				;	ScrRt() - Move cursor right one
   113 				;	-------------------------------
   114 B35F			scrrt	.proc
   115 B35F A9 1F			lda	#character.right
   116 B361 D0 CF			bne	putch
   117 					.endp
   118
   119 					.endp		; End of screen
    53 B363				.local	compiler	; Main bank part of the compiler
    54 B363				icl	"compiler/COMPILER-DEF.asm"
Source: COMPILER-DEF.asm
     1 				;
     2 				;	COMPILER.DEF
     3 				;
     4 				; Copyright 1982 by Clinton W Parker.
     5 				; All Rights Reserved.
     6 				; Original last modified October 18, 1982.
     7 				;
     8 				; This file is part of Action!.
     9 				;
    10 				; Action! is free software: you can redistribute it and/or modify
    11 				; it under the terms of the GNU General Public License as published by
    12 				; the Free Software Foundation, either version 3 of the License, or
    13 				; (at your option) any later version.
    14 				;
    15 				; Action! is distributed in the hope that it will be useful,
    16 				; but WITHOUT ANY WARRANTY; without even the implied warranty of
    17 				; MERCHANTABILITY or FITNESS FOR A PARTICULAR PURPOSE.  See the
    18 				; GNU General Public License for more details.
    19 				;
    20 				; You should have received a copy of the GNU General Public License
    21 				; along with Action!.  If not, see <http://www.gnu.org/licenses/>.
    22 				;
    23 				; @com.wudsn.ide.asm.mainsourcefile=../ACTION.asm
    24
    25 				;=============================
    26 				;	Compiler tokens
    27 				;=============================
    28
    29 B363				.enum	tokens
    30 = 0001			plusid	=	1
    31 = 0002			minusid	=	2
    32 = 0003			timesid	=	3
    33 = 0004			divideid =	4
    34 = 0005			orid	=	5
    35 = 0006			andid	=	6
    36 = 0007			equalid	=	7
    37 = 0008			neid	=	8
    38 = 0009			grid	=	9
    39 				;geid	=	10
    40 = 000B			lsid	=	11
    41 				;leid	=	12
    42 = 000D			remid	=	13
    43 = 000E			xorid	=	14
    44 = 000F			lshid	=	15
    45 = 0010			rshid	=	16
    46 = 0011			uminusid =	17
    47 = 0012			atid	=	18
    48
    49 = 0015			scolon	=	21
    50 = 0016			squote	=	22	; Single quote
    51 = 0017			period	=	23
    52 = 0018			rparen	=	24
    53 = 0019			lparen	=	25
    54 = 001A			comma	=	26
    55 = 001B			defid	=	27
    56 = 009C			digit	=	28+$80
    57 = 001D			hex	=	29
    58 = 001E			quote	=	30
    59
    60 = 0020			charid	=	32
    61 = 0021			byteid	=	33
    62 = 0022			intid	=	34
    63 = 0023			cardid	=	35
    64 				;stringid	=	36
    65 				;realid	=	37
    66 = 0026			defineid	=	38
    67 = 0027			recordid	=	39
    68
    69 = 0040			arrayid	=	64
    70 = 0041			funcid	=	65
    71 = 0042			procid	=	66
    72 = 0043			getid	=	67
    73 = 0044			setid	=	68
    74 = 0045			pointerid	=	69
    75 = 0046			typeid	=	70
    76
    77 = 0050			ifid	=	80
    78 = 0051			whileid	=	81
    79 = 0052			retid	=	82
    80 = 0053			exitid	=	83
    81 = 0054			forid	=	84
    82 				;caseid	=	85
    83 				;codeid	=	86
    84 = 0057			modid	=	87
    85 = 0058			untilid	=	88
    86
    87 = 005B			lbrack	=	91
    88 = 005D			rbrack	=	93
    89 = 005E			uparrow	=	94
    90
    91 = 0060			thenid	=	96
    92 = 0061			elseid	=	97
    93 = 0062			doid	=	98
    94 = 0063			fi	=	99
    95 = 0064			odid	=	100
    96 = 0065			toid	=	101
    97 = 0066			stepid	=	102
    98 				;ofid	=	103
    99 				;esacid	=	104
   100 				;edocid	=	105
   101 = 006A			elseif	=	106
   102 				;downtoid	=	107
   103
   104 = 0070			typet	=	$70		; 112
   105
   106 = 007F			eofid	=	127
   107
   108 = 0080			constt	=	$80		; Base value of value type, actual type is added to this
   109 = 0088			vart	=	$88
   110 = 0090			arrayt	=	$90
   111 = 00A8			tempt	=	$a8
   112 = 00C0			funct	=	$c0
   113 = 0048			condt	=	$48
   114 					.ende			; End of tokens
   115
   116 				;	types
   117 				;	-----
   118 B363				.enum	types
   119 = 0001			chart	=	1
   120 = 0002			bytet	=	2
   121 = 0003			intt	=	3
   122 = 0004			cardt	=	4
   123 = 0005			strt	=	5
   124 = 0006			realt	=	6
   125 					.ende
   126
   127 = 0088			undec	equ	$88		; Undeclared. TODO: Is this a token or type or...
   128
   129
   130 				;========================
   131 				;	Error codes
   132 				;========================
   133
   134
   135 B363				.enum	errors		; Text from reference manual
   136 = 0000			memer	=	0		; Out of system memory
   137 = 0001			strer	=	1		; Missing quote in a string
   138 = 0002			dfner	=	2		; Nested DEFINEs
   139 = 0003			gster	=	3		; Global variable symbol table full
   140 = 0004			lster	=	4		; Local variable symbol table full
   141 = 0005			seter	=	5		; SET directive syntax error
   142 = 0006			dcler	=	6		; Declaration error
   143 = 0007			arger	=	7		; Invalid argument list
   144 = 0008			varer	=	8		; Variable not declared
   145 = 0009			conster	=	9		; Not a constant
   146 = 000A			asser	=	10		; Illegal assignment
   147 = 000B			ender	=	11		; Unknown error
   148 = 000C			thener	=	12		; Missing THEN
   149 = 000D			fier	=	13		; Missing FI
   150 = 000E			cder	=	14		; Out of code space
   151 = 000F			doer	=	15		; Missing DO
   152 = 0010			toer	=	16		; Missing TO
   153 = 0011			exper	=	17		; Bad expression
   154 = 0012			parer	=	18		; Unmatched parentheses
   155 = 0013			oder	=	19		; Missing OD
   156 = 0014			alcer	=	20		; Cannot allocate memory
   157 = 0015			arrer	=	21		; Illegal array reference
   158 = 0016			fileer	=	22		; Input file too large
   159 = 0017			cnder	=	23		; Illegal conditional expression
   160 = 0018			forer	=	24		; Illegal FOR statement syntax
   161 = 0019			exiter	=	25		; Illegal EXIT
   162 = 001A			nster	=	26		; Nesting too deep
   163 = 001B			typer	=	27		; Illegal TYPE syntax
   164 = 001C			reter	=	28		; Illegal RETURN
   165 = 003D			stspcer	=	61 		; Out of symbol table space
   166 = 0080			brker	=	$80		; BREAK key pressed
   167 					.ende
   168
   169 					.if feature_error_texts = 1
   170
   171 					.proc error_texts
   172
   173 					.proc get_error_text	
   174 					x1	= arg2
   175 					p1	= arg0
   176
   177 					sta	x1
   178 					mwy	#texts p1
   179 				loop	ldy	#0
   180 					lda	(p1),y
   181 					cmp	x1
   182 					beq	found
   183 					cmp	#texts.not_found
   184 					beq	not_found
   185 					iny
   186 					clc
   187 					lda	(p1),y
   188 					adc	#1+1		;Skip error code and length byte
   189 					adc	p1
   190 					sta	p1
   191 					scc
   192 					inc	p1+1
   193 					bne	loop		; Unconditional branch
   194
   195 				not_found
   196 					mwa	#texts.unknown p1
   197
   198 				found	inw	p1		; Skip error code
   199 					rts
   200 					.endp
   201
   202
   203 					.local texts
   204
   205 					not_found = $ff
   206
   207 					.macro m_error_text
   208 					.byte errors.:1
   209 					m_string :2
   210 					.endm
   211
   212 					m_error_text memer,	'Out of system memory'
   213 					m_error_text strer,	'Missing quote in a string'
   214 					m_error_text dfner,	'Nested DEFINEs'
   215 					m_error_text gster,	'Global variable symbol table full'
   216 					m_error_text lster,	'Local variable symbol table full'
   217 					m_error_text seter,	'SET directive syntax error'
   218 					m_error_text dcler,	'Declaration error'
   219 					m_error_text arger,	'Invalid argument list'
   220 					m_error_text varer,	'Variable not declared'
   221 					m_error_text conster,	'Not a constant'
   222 					m_error_text asser,	'Illegal assignment'
   223 				unknown	m_error_text ender,	'Unknown error'
   224 					m_error_text thener,	'Missing THEN'
   225 					m_error_text fier,	'Missing FI'
   226 					m_error_text cder,	'Out of code space'
   227 					m_error_text doer,	'Missing DO'
   228 					m_error_text toer,	'Missing TO'
   229 					m_error_text exper,	'Bad expression'
   230 					m_error_text parer,	'Unmatched parentheses'
   231 					m_error_text oder,	'Missing OD'
   232 					m_error_text alcer,	'Cannot allocate memory'
   233 					m_error_text arrer,	'Illegal array reference'
   234 					m_error_text fileer,	'Input file too large'
   235 					m_error_text cnder,	'Illegal conditional expression'
   236 					m_error_text forer,	'Illegal FOR statement syntax'
   237 					m_error_text exiter,	'Illegal EXIT'
   238 					m_error_text nster,	'Nesting too deep'
   239 					m_error_text typer,	'Illegal TYPE syntax'
   240 					m_error_text reter,	'Illegal RETURN'
   241 					m_error_text stspcer,	'Out of symbol table space'
   242 					m_error_text brker,	'BREAK key pressed'
   243 					.byte not_found		; Termination mark
   244 					.endl			; End of texts
   245
   246 					.endp			; End of error_texts
   247
   248 					.endif
    55 B363				icl	"compiler/LEXICON.asm"
Source: LEXICON.asm
     1 				;
     2 				;	LEXICON.ASM
     3 				;
     4 				; Copyright 1982 by Clinton W Parker.
     5 				; All Rights Reserved.
     6 				; Original last modified October 18, 1982.
     7 				;
     8 				; This file is part of Action!.
     9 				;
    10 				; Action! is free software: you can redistribute it and/or modify
    11 				; it under the terms of the GNU General Public License as published by
    12 				; the Free Software Foundation, either version 3 of the License, or
    13 				; (at your option) any later version.
    14 				;
    15 				; Action! is distributed in the hope that it will be useful,
    16 				; but WITHOUT ANY WARRANTY; without even the implied warranty of
    17 				; MERCHANTABILITY or FITNESS FOR A PARTICULAR PURPOSE.  See the
    18 				; GNU General Public License for more details.
    19 				;
    20 				; You should have received a copy of the GNU General Public License
    21 				; along with Action!.  If not, see <http://www.gnu.org/licenses/>.
    22 				;
    23 				; @com.wudsn.ide.asm.mainsourcefile=../ACTION.asm
    24
    25
    26 B363				.proc lexicon
    27
    28 				;============================================
    29 				;	Compiler lexicon - get tokens
    30 				;============================================
    31
    32 				;	GetNext()
    33 				;	---------
    34 B363			getnext	.proc
    35 B363 A5 D2			lda	spnxt
    36 B365 A6 C7			ldx	curnxt
    37 B367 A4 C8			ldy	curnxt+1
    38 B369 86 C5			stx	curln
    39 B36B 84 C6			sty	curln+1
    40 B36D 85 C4			sta	spln
    41
    42 B36F A5 C2			lda	token
    43 B371 85 8B			sta	lsttoken
    44 B373 A6 C9			ldx	nxtaddr
    45 B375 A4 CA			ldy	nxtaddr+1
    46 B377 A5 D3			lda	nxttoken
    47 B379 86 C0			stx	addr
    48 B37B 84 C1			sty	addr+1
    49 B37D 85 C2			sta	token
    50 B37F			getnloop
    51 B37F 20 91 B4			jsr	nextchar
    52 B382 C9 7F		getnl0	cmp	#tokens.eofid
    53 B384 F0 39			beq	getnr1
    54
    55 B386 C9 21			cmp	#'!'
    56 B388 90 F5			bcc	getnloop
    57 							; save line index for debugging
    58 B38A A6 8D			ldx	choff
    59 B38C 86 D2			stx	spnxt
    60
    61 B38E C9 41			cmp	#'A'
    62 B390 B0 0C			bcs	getnl1
    63 B392 A8				tay	
    64 B393 B9 7D B5			lda	lexchars-33,y
    65 B396 F0 E7			beq	getnloop
    66 B398 10 25			bpl	getnr1
    67 B39A 29 7F			and	#$7f
    68 B39C D0 18			bne	getnr0		; unconditional branch
    69
    70 B39E 20 29 B7		getnl1	jsr	mainmsc.alpha
    71 B3A1 D0 0E			bne	getnid
    72
    73 B3A3 C9 5B			cmp	#'['
    74 B3A5 F0 18			beq	getnr1
    75 B3A7 C9 5E			cmp	#'^'
    76 B3A9 F0 14			beq	getnr1
    77 B3AB C9 5D			cmp	#']'
    78 B3AD F0 10			beq	getnr1
    79 B3AF D0 CE			bne	getnloop	; unconditional branch
    80
    81 B3B1 20 F2 B7		getnid	jsr	mainbnk.getname
    82 B3B4 30 09			bmi	getnr1
    83
    84 B3B6 85 D3		getnr0	sta	nxttoken
    85 B3B8 A2 74			ldx	#<lexcmd
    86 B3BA A0 B5			ldy	#>lexcmd
    87 B3BC 4C F4 B6			jmp	mainmsc.lookup
    88
    89 B3BF 85 D3		getnr1	sta	nxttoken
    90
    91 				;GetNr2 LDA $D0
    92 				; BEQ GetNr3
    93 				; JSR PrintTok
    94
    95 B3C1 A6 C0		getnr2	ldx	addr
    96 B3C3 A4 C1			ldy	addr+1
    97 B3C5 A5 C2		ismt	lda	token
    98 B3C7 60				rts	
    99 					.endp
   100
   101
   102 				;	LexCom()
   103 				;	--------
   104 B3C8			lexcom	.proc
   105 B3C8 20 9B B4			jsr	nextline
   106 B3CB D0 B5			bne	getnext.getnl0		; unconditional branch
   107 					.endp
   108
   109
   110 				;	LexDig()
   111 				;	--------
   112 B3CD			lexdig	.proc
   113 B3CD A9 83			lda	#tokens.constt+types.intt
   114 B3CF 85 D3			sta	nxttoken
   115 B3D1 20 64 B5			jsr	lexbuf		; get buf ptr
   116 B3D4 20 F1 B1			jsr	mainio.storeal
   117 B3D7 20 91 B4		ldig1	jsr	nextchar	; cardinal?
   118 B3DA 20 1E B7			jsr	mainmsc.alphanum.num
   119 B3DD D0 F8			bne	ldig1
   120 B3DF C9 2E			cmp	#'.'
   121 B3E1 F0 1F			beq	ldig4
   122 B3E3 C9 45			cmp	#'E'
   123 B3E5 F0 1B			beq	ldig4
   124 B3E7 C6 8D			dec	choff
   125 B3E9 20 E0 B1			jsr	mainio.rtocar
   126 B3EC 90 08			bcc	ldig3
   127
   128 				;cnsterr
   129 B3EE A0 09			ldy	#errors.conster
   130 B3F0 4C 83 B8			jmp	mainbnk.splerr
   131
   132 B3F3 88			ldig2	dey	
   133 B3F4 84 8D			sty	choff
   134 B3F6 85 C9		ldig3	sta	nxtaddr
   135 B3F8 86 CA			stx	nxtaddr+1
   136 B3FA E0 00			cpx	#0
   137 B3FC D0 C3			bne	getnext.getnr2
   138 B3FE A9 82			lda	#tokens.constt+types.bytet
   139 B400 D0 BD			bne	getnext.getnr1
   140
   141 B402 A9 86		ldig4	lda	#tokens.constt+types.realt
   142 B404 85 D3			sta	nxttoken
   143 B406 A4 F2			ldy	cix
   144 B408 A2 FF			ldx	#$ff		; for SET cmd
   145 B40A D0 E7			bne	ldig2
   146 					.endp
   147
   148
   149 				;	LexChr()
   150 				;	--------
   151 B40C			lexchr	.proc
   152 B40C 20 91 B4			jsr	nextchar
   153 B40F 85 C9			sta	nxtaddr
   154 B411 A9 81			lda	#tokens.constt+types.chart
   155 B413 D0 AA			bne	getnext.getnr1
   156 					.endp
   157
   158
   159 				;	LexNE()
   160 				;	-------
   161 B415			lexne	.proc
   162 B415 20 91 B4			jsr	nextchar
   163 B418 C9 3E			cmp	#'>'
   164 B41A D0 07			bne	lexeq.leq1
   165 B41C A9 08			lda	#tokens.neid
   166 B41E D0 9F			bne	getnext.getnr1		; unconditional branch
   167 					.endp
   168
   169
   170 				;	LexEq()
   171 				;	-------
   172 B420			lexeq	.proc
   173 B420 20 91 B4			jsr	nextchar
   174 B423 C9 3D		leq1	cmp	#'='
   175 B425 D0 12			bne	putback
   176 B427 E6 D3			inc	nxttoken
   177 B429 D0 96			bne	getnext.getnr2		; unconditional branch
   178 					.endp
   179
   180
   181 				;	LexHex()
   182 				;	--------
   183 B42B			lexhex	.proc
   184 B42B A9 84			lda	#tokens.constt+types.cardt
   185 B42D 85 D3			sta	nxttoken
   186 B42F E6 8D			inc	choff
   187 B431 20 64 B5			jsr	lexbuf
   188 B434 20 A7 B1			jsr	mainio.htocar
   189 B437 D0 BA			bne	lexdig.ldig2	; unconditional branch
   190 					.endp
   191
   192
   193 				;	PutBack returns character to buf
   194 				;	--------------------------------
   195 B439			putback	.proc	
   196 B439 C6 8D			dec	choff
   197 B43B 4C C1 B3		pback	jmp	getnext.getnr2
   198 					.endp
   199
   200
   201 				;	LexPF()
   202 				;	-------
   203 B43E			lexpf	.proc
   204 B43E A5 B8			lda	qglobal
   205 B440 F0 F9			beq	putback.pback
   206 B442 A9 00			lda	#0
   207 B444 85 B8			sta	qglobal
   208
   209 B446 AD 97 04			lda	vars.gbase	; restore qglobal base
   210 B449 85 BD			sta	symtab
   211 B44B AD 98 04			lda	vars.gbase+1
   212 B44E 85 BE			sta	symtab+1
   213 B450 D0 E9			bne	putback.pback	; unconditional branch
   214 					.endp
   215
   216
   217 				;	LexStr()
   218 				;	--------
   219 B452			lexstr	.proc
   220 B452 A5 C2			lda	token
   221 B454 C9 1E			cmp	#tokens.quote
   222 B456 F0 E3			beq	putback.pback	; zap local st
   223 B458 A9 00			lda	#0
   224 B45A 85 A9			sta	arg9
   225 B45C 20 91 B4		??lstr1	jsr	nextchar
   226 B45F E6 A9			inc	arg9
   227 B461 F0 0C			beq	??lstr3		; string too long
   228 B463 C9 22			cmp	#'"'
   229 B465 F0 0D			beq	??lstr4
   230 B467 A4 A9		??lstr2	ldy	arg9
   231 B469 91 BD			sta	(symtab),y
   232 B46B A5 98			lda	chan
   233 B46D 10 ED			bpl	??lstr1		; if not EOF
   234 B46F A0 01		??lstr3	ldy	#errors.strer
   235 B471 4C 83 B8			jmp	mainbnk.splerr
   236
   237 B474 20 91 B4		??lstr4	jsr	nextchar
   238 B477 C9 22			cmp	#'"'
   239 B479 F0 EC			beq	??lstr2		; " in string
   240 								; end of string
   241 B47B A4 A9			ldy	arg9
   242 B47D A9 9B			lda	#eol
   243 B47F 91 BD			sta	(symtab),y
   244 B481 88				dey	
   245 B482 98				tya	
   246 B483 A0 00			ldy	#0
   247 B485 91 BD			sta	(symtab),y	; save size
   248 B487 A5 BD			lda	symtab
   249 B489 A6 BE			ldx	symtab+1
   250 B48B A4 8D			ldy	choff
   251 B48D 88				dey	
   252 B48E 4C F3 B3			jmp	lexdig.ldig2
   253 					.endp
   254
   255
   256 				;	NextChar()
   257 				;	----------
   258 B491			nextchar .proc
   259 B491 A4 99			ldy	defflg
   260 B493 D0 55			bne	lexdef
   261
   262 B495 A4 8D		nxtch0	ldy	choff
   263 B497 C4 8C			cpy	sp
   264 B499 90 46			bcc	nextline.nxtch1
   265 					.endp
   266
   267
   268 				;	NextLine()
   269 				;	----------
   270 B49B			nextline .proc
   271 B49B A5 98			lda	chan
   272 B49D F0 12			beq	??nln1
   273 B49F 30 46			bmi	??nln4		; eof
   274
   275 B4A1 20 A7 B0			jsr	mainio.rdbuf
   276 B4A4 10 21			bpl	??nln2
   277
   278 B4A6 C0 88			cpy	#cio_error.eof	; EOF
   279 B4A8 F0 03			beq	??nln0
   280 B4AA 4C 83 B8			jmp	mainbnk.splerr	; I/O error
   281
   282 B4AD C6 98		??nln0	dec	chan
   283 B4AF D0 EA			bne	nextline
   284
   285 B4B1 A4 91		??nln1	ldy	top+1
   286 B4B3 F0 F8			beq	??nln0		; set eof, tricky qcode
   287 B4B5 20 C2 B2			jsr	mainio.ldbuf
   288 B4B8 A5 94			lda	cur
   289 B4BA 85 C7			sta	curnxt
   290 B4BC A6 95			ldx	cur+1
   291 B4BE 86 C8			stx	curnxt+1
   292 B4C0 20 D3 B5			jsr	mainmsc.editor.nextdwn
   293 B4C3 D0 02			bne	??nln2
   294 				;	LDA #0
   295 B4C5 85 91			sta	top+1
   296
   297 B4C7 AD 9A 04		??nln2	lda	vars.list
   298 B4CA F0 05			beq	??nln3		; don't list
   299 B4CC A5 B7			lda	device
   300 B4CE 20 CA B0			jsr	mainio.wrtbuf
   301 B4D1 A0 00		??nln3	ldy	#0
   302 B4D3 84 8D			sty	choff
   303 B4D5 B1 9B			lda	(buf),y
   304 B4D7 A8				tay	
   305 B4D8 C8				iny	
   306 B4D9 84 8C			sty	sp
   307 B4DB A9 9B			lda	#eol
   308 B4DD 91 9B			sta	(buf),y
   309 B4DF A0 00			ldy	#0
   310
   311 B4E1 C8			nxtch1	iny	
   312 B4E2 B1 9B			lda	(buf),y
   313 B4E4 84 8D			sty	choff
   314 B4E6 60				rts	
   315
   316 B4E7 A9 7F		??nln4	lda	#tokens.eofid
   317 B4E9 60				rts	
   318 					.endp
   319
   320
   321 B4EA			lexdef	.proc	
   322 B4EA A0 00			ldy	#0
   323 B4EC B1 9E			lda	(delnxt),y
   324 B4EE E6 8D			inc	choff
   325 B4F0 C5 8D			cmp	choff
   326 B4F2 B0 08			bcs	ldef1
   327 B4F4 A5 99			lda	defflg
   328 B4F6 85 8D			sta	choff
   329 B4F8 84 99			sty	defflg
   330 B4FA 90 99			bcc	nextchar.nxtch0	; unconditional branch
   331
   332 B4FC A4 8D		ldef1	ldy	choff
   333 B4FE B1 9E			lda	(delnxt),y
   334 B500 60				rts	
   335 					.endp
   336
   337
   338 				;	LexGet()
   339 				;	--------
   340 B501			lexget	.proc
   341 B501 20 7F B3			jsr	getnext.getnloop
   342 B504 A9 00		lget	lda	#0
   343 B506 85 99			sta	defflg
   344 B508 E6 98			inc	chan
   345 B50A A9 04			lda	#4
   346 B50C 20 54 B1			jsr	mainio.openchan
   347 B50F 20 9B B4			jsr	nextline
   348 B512 4C 82 B3			jmp	getnext.getnl0
   349 					.endp
   350
   351
   352 				;	LexSet()
   353 				;	--------
   354 B515			lexset	.proc
   355 B515 20 3A B5			jsr	getadr
   356 B518 85 AB			sta	arg11
   357 B51A 86 AC			stx	arg12
   358
   359 B51C 20 7F B3			jsr	getnext.getnloop
   360 B51F A5 D3			lda	nxttoken
   361 B521 C9 07			cmp	#tokens.equalid
   362 B523 D0 10			bne	lseterr
   363
   364 B525 20 3A B5			jsr	getadr
   365 B528 A0 00			ldy	#0
   366 B52A 91 AB			sta	(arg11),y
   367 B52C 8A				txa	
   368 B52D F0 03			beq	lset1
   369 B52F C8				iny	
   370 B530 91 AB			sta	(arg11),y
   371 B532 4C 7F B3		lset1	jmp	getnext.getnloop
   372
   373 B535 A0 05		lseterr	ldy	#errors.seter
   374 B537 4C 83 B8			jmp	mainbnk.splerr
   375 					.endp
   376
   377 B53A			getadr	.proc
   378 B53A 20 7F B3			jsr	getnext.getnloop
   379 B53D 4C F7 B5			jmp	mainmsc.mnum
   380 					.endp
   381
   382
   383 				;	LexExpand()
   384 				;	-----------
   385 B540			lexexpand .proc
   386 B540 A5 99			lda	defflg
   387 B542 F0 05			beq	lexp
   388 B544 A0 02			ldy	#errors.dfner
   389 B546 4C 83 B8			jmp	mainbnk.splerr
   390
   391 B549 A9 03		lexp	lda	#3
   392 B54B 20 67 B7			jsr	mainmsc.prop.nxtprop
   393 B54E A5 88			lda	props
   394 B550 A6 89			ldx	props+1
   395 B552 20 9F B7			jsr	mainmsc.prop.rstp
   396 B555 A4 8D			ldy	choff
   397 B557 85 9E		lexp1	sta	delnxt
   398 B559 86 9F			stx	delnxt+1
   399 B55B 84 99			sty	defflg
   400 B55D A9 00			lda	#0
   401 B55F 85 8D			sta	choff
   402 B561 4C 7F B3			jmp	getnext.getnloop
   403 					.endp
   404
   405
   406 				;	LexBuf()
   407 				;	--------
   408 B564			lexbuf	.proc
   409 B564 A4 8D			ldy	choff
   410 B566 A5 99			lda	defflg
   411 B568 F0 05			beq	??lbuf
   412 B56A A5 9E			lda	delnxt
   413 B56C A6 9F			ldx	delnxt+1
   414 B56E 60				rts	
   415 B56F A5 9B		??lbuf	lda	buf
   416 B571 A6 9C			ldx	buf+1
   417 B573 60				rts	
   418 					.endp
   419
   420
   421 B574				.local	lexcmd
   422 B574 C1 B3			.word	getnext.getnr2
   423 B576 29				.byte	41
   424 B577 CD B3			.word	lexdig
   425 B579 1C				.byte	tokens.digit-$80
   426 B57A 2B B4			.word	lexhex
   427 B57C 1D				.byte	tokens.hex
   428 B57D 20 B4			.word	lexeq
   429 B57F 09				.byte	tokens.grid
   430 B580 15 B4			.word	lexne
   431 B582 0B				.byte	tokens.lsid
   432 B583 40 B5			.word	lexexpand
   433 B585 1B				.byte	tokens.defid
   434 B586 C8 B3			.word	lexcom
   435 B588 15				.byte	tokens.scolon
   436 B589 0C B4			.word	lexchr
   437 B58B 16				.byte	tokens.squote
   438 B58C 3E B4			.word	lexpf
   439 B58E 42				.byte	tokens.procid
   440 B58F 3E B4			.word	lexpf
   441 B591 41				.byte	tokens.funcid
   442 B592 3E B4			.word	lexpf
   443 B594 57				.byte	tokens.modid
   444 B595 52 B4			.word	lexstr
   445 B597 1E				.byte	tokens.quote
   446 B598 01 B5			.word	lexget
   447 B59A 43				.byte	tokens.getid
   448 B59B 15 B5			.word	lexset
   449 B59D 44				.byte	tokens.setid
   450 					 .endl
   451
   452 B59E				.local	lexchars
   453 B59E 0E				.byte	tokens.xorid		; !
   454 B59F 9E				.byte	tokens.quote+$80	; "
   455 B5A0 08				.byte	tokens.neid		; #
   456 B5A1 9D				.byte	tokens.hex+$80		; $
   457 B5A2 05				.byte	tokens.orid		; %
   458 B5A3 06				.byte	tokens.andid		; &
   459 B5A4 96				.byte	tokens.squote+$80	; '
   460 B5A5 19				.byte	tokens.lparen		; (
   461 B5A6 18				.byte	tokens.rparen		; )
   462 B5A7 03				.byte	tokens.timesid
   463 B5A8 01				.byte	tokens.plusid		; +
   464 B5A9 1A				.byte	tokens.comma		; ,
   465 B5AA 02				.byte	tokens.minusid		; -
   466 B5AB 17				.byte	tokens.period		; .
   467 B5AC 84				.byte	tokens.divideid+$80	; /
   468 B5AD 9C 9C 9C 9C			.byte	tokens.digit,tokens.digit,tokens.digit,tokens.digit
   469 B5B1 9C 9C 9C 9C			.byte	tokens.digit,tokens.digit,tokens.digit,tokens.digit
   470 B5B5 9C 9C			.byte	tokens.digit,tokens.digit		; 0 thru 9
   471 B5B7 00				.byte	0			; :
   472 B5B8 95				.byte	tokens.scolon+$80	; ;
   473 B5B9 8B				.byte	tokens.lsid+$80		; low
   474 B5BA 07				.byte	tokens.equalid		; =
   475 B5BB 89				.byte	tokens.grid+$80		; high
   476 B5BC 7E				.byte	126			; ?
   477 B5BD 12				.byte	tokens.atid		; @
   478 					.endl
   479
   480 				;PrintTok LDA token
   481 				; LDX #0
   482 				; JSR PrintC
   483 				; JSR PutSp
   484 				; LDA addr
   485 				; LDX addr+1
   486 				; JSR PrintH
   487 				; JSR PutSp
   488 				; LDA nxtToken
   489 				; LDX #0
   490 				; JSR PrintC
   491 				; JSR PutSp
   492 				; LDA nxtAddr
   493 				; LDX nxtAddr+1
   494 				; JSR PrintH
   495 				; JMP PutEOL
   496 					.endp	; end of lexicon
    56 					.endl
    57 B5BE				icl	"main/MAIN.MSC.asm"
Source: MAIN.MSC.asm
     1 				;
     2 				;	MAIN.MSC
     3 				;
     4 				; Copyright 1982 by Clinton W Parker.
     5 				; All Rights Reserved.
     6 				; Original last modified October 18, 1982.
     7 				;
     8 				; This file is part of Action!.
     9 				;
    10 				; Action! is free software: you can redistribute it and/or modify
    11 				; it under the terms of the GNU General Public License as published by
    12 				; the Free Software Foundation, either version 3 of the License, or
    13 				; (at your option) any later version.
    14 				;
    15 				; Action! is distributed in the hope that it will be useful,
    16 				; but WITHOUT ANY WARRANTY; without even the implied warranty of
    17 				; MERCHANTABILITY or FITNESS FOR A PARTICULAR PURPOSE.  See the
    18 				; GNU General Public License for more details.
    19 				;
    20 				; You should have received a copy of the GNU General Public License
    21 				; along with Action!.  If not, see <http://www.gnu.org/licenses/>.
    22 				;
    23 				; @com.wudsn.ide.asm.mainsourcefile=../ACTION.asm
    24
    25 B5BE				.proc mainmsc
    26
    27 					.if	.def rom	;Ony import ROM, if it's defined at all
    28 B5BE				.use 	rom		;This module heavily depends on the ROM
    29 					.endif
    30
    31 B5BE			lsh1	.proc			;LShift(val, cnt)
    32 				;??a	equ	aflast+1
    33 				;??b	equ	aflast
    34 = 0085			??c	equ	afcur+1
    35 = 0084			??d	equ	afcur
    36 				;??rl	equ	afsize
    37 				;??rh	equ	afsize+1
    38 				;??t1	equ	addr
    39 				;??t2	equ	addr+1
    40 				;??sign	equ	token
    41
    42 B5BE 84 84			sty	??d
    43 B5C0 A4 84		lshift	ldy	??d
    44 B5C2 F0 0A			beq	??lshret
    45 B5C4 86 85			stx	??c
    46 B5C6 0A			??lsh1	asl
    47 B5C7 26 85			rol	??c
    48 B5C9 88				dey	
    49 B5CA D0 FA			bne	??lsh1
    50 B5CC A6 85			ldx	??c
    51 B5CE 60			??lshret rts	
    52 					.endp
    53
    54 B5CF				.proc editor
    55
    56 B5CF			nextup	.proc			; NextUp()
    57 B5CF A0 01			ldy	#1
    58 B5D1 D0 02			bne	next		; unconditional branch
    59 					.endp
    60
    61 B5D3			nextdwn	.proc			; NextDwn()
    62 B5D3 A0 05			ldy	#5
    63 B5D5				m_assert_next next	; falls through to next
Macro: M_ASSERT_NEXT [Source: ACTION.DEF.asm]
Source: MAIN.MSC.asm
    64 					.endp
    65
    66
    67 B5D5			next	.proc			; Next(,,dir)
    68 B5D5 20 B5 B2			jsr	mainio.chkcur
    69 B5D8 F0 0D			beq	next1
    70 B5DA B1 94			lda	(cur),y
    71 B5DC F0 09			beq	next1
    72 B5DE AA				tax	
    73 B5DF 88				dey	
    74 B5E0 B1 94			lda	(cur),y
    75 B5E2 85 94			sta	cur
    76 B5E4 8A				txa	
    77 B5E5 85 95			sta	cur+1
    78 B5E7 60			next1	rts	
    79 					.endp
    80
    81 B5E8			curstr	.proc			; CurStr(), does not change Y
    82 B5E8 A5 94			lda	cur
    83 B5EA A6 95			ldx	cur+1
    84 					.endp
    85
    86
    87 B5EC			strptr	.proc			; StrPtr(), does not change Y
    88 B5EC 18				clc	
    89 B5ED 69 06			adc	#6
    90 B5EF 85 A0			sta	arg0
    91 B5F1 90 01			bcc	??sp1
    92 B5F3 E8				inx	
    93 B5F4 86 A1		??sp1	stx	arg1
    94 B5F6 60				rts	
    95 					.endp
    96
    97 					.endp
    98
    99 B5F7			mnum	.proc			; MNum()
   100 B5F7				.use compiler
   101 B5F7 A9 00			lda	#0
   102 B5F9 85 86			sta	afsize
   103 B5FB 85 87			sta	afsize+1
   104
   105 B5FD A5 D3		??mn1	lda	nxttoken
   106 B5FF C9 03			cmp	#tokens.timesid
   107 B601 F0 55			beq	??mn4		; qcode reference
   108 B603 C9 5B			cmp	#tokens.lbrack
   109 B605 F0 57			beq	??mn5
   110 B607 C9 27			cmp	#tokens.recordid
   111 B609 F0 17			beq	mnvar
   112 B60B C9 70			cmp	#tokens.typet
   113 B60D F0 13			beq	mnvar
   114 B60F C9 78			cmp	#tokens.typet+8
   115 B611 F0 0F			beq	mnvar
   116 B613 C9 1E			cmp	#tokens.quote
   117 B615 F0 4F			beq	??mnstr
   118 B617 C9 88			cmp	#undec
   119 B619 F0 6D			beq	??mnundec
   120 B61B B0 05			bcs	mnvar
   121 B61D 20 AD B6			jsr	getconst
   122 B620 90 08			bcc	??mn2
   123
   124 B622 A9 01		mnvar	lda	#1
   125 B624 20 67 B7			jsr	prop.nxtprop
   126 B627 20 9F B7		??mnv1	jsr	prop.rstp
   127
   128 B62A 18			??mn2	clc	
   129 B62B 65 86			adc	afsize
   130 B62D 85 86			sta	afsize
   131 B62F 8A				txa	
   132 B630 65 87			adc	afsize+1
   133 B632 85 87		??mn2a	sta	afsize+1
   134 B634 20 91 B4			jsr	lexicon.nextchar
   135 B637 C9 2B			cmp	#'+'
   136 B639 D0 05			bne	??mn2b
   137 B63B 20 63 B3			jsr	getnext
   138 B63E D0 BD			bne	??mn1		; unconditional branch
   139
   140 B640 A0 00		??mn2b	ldy	#0
   141 B642 C9 5E			cmp	#'^'
   142 B644 D0 0B			bne	??mn3
   143 B646 B1 86			lda	(afsize),y
   144 B648 AA				tax	
   145 B649 C8				iny	
   146 B64A B1 86			lda	(afsize),y
   147 B64C 86 86			stx	afsize
   148 B64E 4C 32 B6			jmp	??mn2a
   149
   150 B651 C6 8D		??mn3	dec	choff		; put back character
   151 B653 A5 86			lda	afsize
   152 B655 A6 87			ldx	afsize+1
   153 				;	LDY #0
   154 B657 60				rts	
   155
   156 B658 20 E0 B6		??mn4	jsr	getcdoff	; qcode reference
   157 B65B 4C 2A B6			jmp	??mn2
   158
   159 B65E 20 E0 B6		??mn5	jsr	getcdoff	; table reference
   160 B661 48				pha	
   161 B662 8A				txa	
   162 B663 48				pha	
   163 B664 D0 1D			bne	??mn8		; unconditional branch
   164
   165 B666 20 BC B6		??mnstr	jsr	copystr		; string ref
   166 B669 4C 2A B6			jmp	??mn2
   167
   168 B66C A5 D3		??mn6	lda	nxttoken	; body of table
   169 B66E C9 5D			cmp	#tokens.rbrack
   170 B670 F0 35			beq	??mn9
   171 B672 20 AD B6			jsr	getconst
   172 B675 A0 00			ldy	#0
   173 B677 20 ED B6			jsr	storevar
   174 B67A A5 8A			lda	op
   175 B67C F0 01			beq	??mn7		; byte?
   176 B67E C8				iny			; no, word
   177 B67F 98			??mn7	tya	
   178 B680 20 4D B7			jsr	codeincr
   179 B683 20 63 B3		??mn8	jsr	getnext
   180 B686 D0 E4			bne	??mn6		; unconditional branch
   181
   182 B688			??mnundec
   183 B688 A9 01			lda	#1
   184 B68A 20 67 B7			jsr	prop.nxtprop
   185 B68D AA				tax	
   186 B68E C8				iny	
   187 B68F B1 88			lda	(props),y
   188 B691 F0 0F			beq	varerr
   189 B693 A8				tay
   190 					.if	.def bank
   191 B694 8D 00 D5			sta	bank+lbank
   192 					.endif
   193 B697 A9 01			lda	#1
   194 B699 20 7F B7			jsr	prop.gprop
   195 B69C 20 F8 B7			jsr	mainbnk.rstbank
   196 B69F 4C 27 B6			jmp	??mnv1
   197
   198 B6A2 A0 08		varerr	ldy	#errors.varer
   199 B6A4 4C 83 B8		adrerr	jmp	mainbnk.splerr
   200
   201 B6A7 68			??mn9	pla			; end of table
   202 B6A8 AA				tax	
   203 B6A9 68				pla	
   204 B6AA 4C 2A B6			jmp	??mn2
   205 					.endp
   206
   207
   208 B6AD			getconst .proc			; GetConst(token)
   209 B6AD				.use compiler
   210 B6AD A0 09			ldy	#errors.conster
   211 B6AF C9 81			cmp	#$81
   212 B6B1 90 F1			bcc	mnum.adrerr
   213 B6B3 C9 85			cmp	#tokens.constt+types.strt
   214 B6B5 B0 ED			bcs	mnum.adrerr
   215 B6B7 A5 C9			lda	nxtaddr
   216 B6B9 A6 CA			ldx	nxtaddr+1
   217 B6BB 60				rts	
   218 					.endp
   219
   220
   221 B6BC			copystr	.proc			; CopyStr()
   222 B6BC 20 E0 B6			jsr	getcdoff
   223 B6BF 48				pha	
   224 B6C0 8A				txa	
   225 B6C1 48				pha	
   226
   227 B6C2 A0 00			ldy	#0
   228 B6C4 B1 C9			lda	(nxtaddr),y	; size
   229 B6C6 91 0E			sta	(qcode),y
   230 B6C8 AA				tax	
   231 B6C9 A8				tay	
   232 B6CA B1 C9		??cs1	lda	(nxtaddr),y
   233 B6CC 91 0E			sta	(qcode),y
   234 B6CE 88				dey	
   235 B6CF D0 F9			bne	??cs1
   236
   237 B6D1 E8				inx	
   238 B6D2 8A				txa	
   239 B6D3 D0 02			bne	??cs2
   240 B6D5 E6 0F			inc	qcode+1
   241 B6D7 20 4D B7		??cs2	jsr	codeincr
   242 B6DA E6 8D			inc	choff		; get rid of end quote
   243 B6DC 68				pla	
   244 B6DD AA				tax	
   245 B6DE 68				pla	
   246 B6DF 60				rts	
   247 					.endp
   248
   249
   250
   251
   252 B6E0			getcdoff .proc			; GetCdOff()
   253 B6E0 18				clc	
   254 B6E1 A5 0E			lda	qcode
   255 B6E3 65 B5			adc	codeoff
   256 B6E5 48				pha	
   257 B6E6 A5 0F			lda	qcode+1
   258 B6E8 65 B6			adc	codeoff+1
   259 B6EA AA				tax	
   260 B6EB 68				pla	
   261 B6EC 60				rts	
   262 					.endp
   263
   264 B6ED			storevar .proc			; StoreVar(low, high, index)
   265 B6ED 91 0E			sta	(qcode),y
   266 B6EF C8				iny	
   267 B6F0 8A				txa	
   268 B6F1 91 0E			sta	(qcode),y
   269 B6F3 60				rts	
   270 					.endp
   271
   272
   273 				;	Command lists have the following structure.
   274 				;	.local commands
   275 				; 	.word	<unkown command handler>
   276 				;	.byte	<table size>
   277 				;	.word	<command 1 handler>
   278 				;	.byte	<command 1 character>
   279 				;	...
   280 				;	.endl
   281
   282 B6F4			lookup	.proc			; Lookup command in command list, IN: <A>=command, <X/Y>=lo/hi byte of command list pointer
   283 B6F4 84 A2			sty	arg1+1		; High byte of pointer
   284
   285 					.if	.def ramzap
   286 					.if	ramzap
   287 B6F6 91 A1			 sta	(arg1),y	; zap RAM if any
   288 					.else	
   289 					 nop	
   290 					 nop	
   291 					.endif
   292 					.endif
   293
   294 B6F8 86 A1			stx	arg1		; Low byte of pointer
   295 B6FA AA				tax			; Save command from A in X
   296 B6FB A0 02			ldy	#2
   297 B6FD B1 A1			lda	(arg1),y
   298 B6FF A8				tay	
   299 B700 8A				txa	
   300 B701 D1 A1		??fml1	cmp	(arg1),y
   301 B703 F0 07			beq	??fmjmp
   302 B705 88				dey	
   303 B706 88				dey	
   304 B707 88				dey	
   305 B708 C0 02			cpy	#2
   306 B70A D0 F5			bne	??fml1
   307
   308 B70C 88			??fmjmp	dey	
   309 B70D B1 A1			lda	(arg1),y
   310 B70F 85 A4			sta	arg4
   311 B711 88				dey	
   312 B712 B1 A1			lda	(arg1),y
   313 B714 85 A3			sta	arg3
   314 B716 6C A3 00			jmp	(arg3)
   315 					.endp
   316
   317 B719			alphanum .proc			; AlphaNum(char)
   318 B719 20 29 B7			jsr	alpha
   319 B71C D0 0A			bne	??anum2
   320
   321 B71E C9 30		num	cmp	#'0'
   322 B720 30 04			bmi	??anum1
   323 B722 C9 3A			cmp	#':'
   324 B724 30 02			bmi	??anum2
   325 B726 A2 00		??anum1	ldx	#0
   326 B728 60			??anum2	rts	
   327 					.endp
   328
   329 B729			alpha	.proc			; Alpha(char)
   330 B729 48				pha	
   331 B72A 09 20			ora	#$20
   332 B72C AA				tax	
   333 B72D 68				pla	
   334 B72E E0 61			cpx	#'a'
   335 B730 30 04			bmi	??alpha1
   336 B732 E0 7B			cpx	#['z'+1]
   337 B734 30 02			bmi	alpha2
   338 B736 A2 00		??alpha1 ldx	#0
   339 B738 60			alpha2	rts	
   340 					.endp
   341
   342
   343 B739			stincr	.proc		; STIncr(size)
   344 B739 18				clc	
   345 B73A 65 BD			adc	symtab
   346 B73C 85 BD			sta	symtab
   347 B73E 90 02			bcc	??s1
   348 B740 E6 BE			inc	symtab+1
   349 B742 A5 BF		??s1	lda	stmax
   350 B744 C5 BE			cmp	symtab+1
   351 B746 B0 F0			bcs	alpha.alpha2	; return
   352
   353 B748 A0 3D			ldy	#compiler.errors.stspcer		; out of s.t. space
   354 B74A 4C 83 B8			jmp	mainbnk.splerr
   355 					.endp
   356
   357
   358 B74D			codeincr .proc			; CodeIncr(size)
   359 B74D				.use compiler
   360 B74D 18				clc	
   361 B74E 65 0E			adc	qcode
   362 B750 85 0E			sta	qcode
   363 B752 90 02			bcc	??c1
   364 B754 E6 0F			inc	qcode+1
   365 B756 A5 B0		??c1	lda	stbase
   366 B758 C5 0F			cmp	qcode+1
   367 B75A B0 DC			bcs	alpha.alpha2	; return
   368
   369 				cderr	.if	.def bank
   370 B75C 8D 03 D5			sta	bank+ebank
   371 					.endif
   372 B75F 20 63 AF			jsr	splsetup	; reset compiler
   373 B762 A0 0E			ldy	#errors.cder	; out of qcode space
   374 B764 4C 83 B8			jmp	mainbnk.splerr
   375 					.endp
   376
   377 B767				.proc prop
   378
   379 B767			nxtprop	.proc			; NxtProp(offset)
   380 B767 A6 88			ldx	props
   381 B769 86 82			stx	aflast
   382 B76B A6 89			ldx	props+1
   383 B76D 86 83			stx	aflast+1
   384 B76F A6 C9			ldx	nxtaddr
   385 B771 A4 CA			ldy	nxtaddr+1
   386 B773 D0 0A			bne	gprop
   387 					.endp
   388
   389
   390 B775			cprop	.proc			; CProp(offset)
   391 B775 A6 8E			ldx	curproc
   392 B777 A4 8F			ldy	curproc+1
   393 B779 D0 04			bne	gprop
   394 					.endp
   395
   396
   397 B77B			getprop	.proc			; GetProp(offset)
   398 B77B A6 C0			ldx	addr
   399 B77D A4 C1			ldy	addr+1
   400 					.endp
   401
   402
   403 B77F			gprop	.proc			; GProp(offset, addr)
   404 B77F 86 88			stx	props
   405 B781 84 89			sty	props+1
   406 B783 A6 89			ldx	props+1
   407 B785 18				clc	
   408 B786 65 88			adc	props
   409 B788 90 01			bcc	??gp1
   410 B78A E8				inx	
   411 B78B 38			??gp1	sec	
   412 B78C A0 00			ldy	#0
   413 B78E 71 88			adc	(props),y
   414 B790 85 88			sta	props
   415 B792 90 01			bcc	??gp2
   416 B794 E8				inx	
   417 B795 86 89		??gp2	stx	props+1
   418 B797 C8				iny	
   419 B798 B1 88			lda	(props),y
   420 B79A AA				tax	
   421 B79B 88				dey	
   422 B79C B1 88			lda	(props),y
   423 B79E 60				rts	
   424 					.endp
   425
   426
   427 B79F			rstp	.proc	
   428 B79F A4 82			ldy	aflast
   429 B7A1 84 88			sty	props
   430 B7A3 A4 83			ldy	aflast+1
   431 B7A5 84 89			sty	props+1
   432 B7A7 60				rts	
   433 					.endp
   434
   435 					.endp
   436
   437 				;	JSRInd(addr)
   438 				;	------------
   439 B7A8			jsrind	.proc
   440 B7A8 85 64			sta	adress
   441 B7AA 86 65			stx	adress+1
   442 B7AC 6C 64 00			jmp	(adress)
   443 					.endp
   444
   445 					.endp			; End of mainmsc
    58 B7AF				icl	"main/MAIN.BNK.asm"
Source: MAIN.BNK.asm
     1 				;
     2 				;	MAIN.BNK
     3 				;
     4 				; Copyright 1982 by Clinton W Parker.
     5 				; All Rights Reserved.
     6 				; Original last modified October 18, 1982.
     7 				;
     8 				; This file is part of Action!.
     9 				;
    10 				; Action! is free software: you can redistribute it and/or modify
    11 				; it under the terms of the GNU General Public License as published by
    12 				; the Free Software Foundation, either version 3 of the License, or
    13 				; (at your option) any later version.
    14 				;
    15 				; Action! is distributed in the hope that it will be useful,
    16 				; but WITHOUT ANY WARRANTY; without even the implied warranty of
    17 				; MERCHANTABILITY or FITNESS FOR A PARTICULAR PURPOSE.  See the
    18 				; GNU General Public License for more details.
    19 				;
    20 				; You should have received a copy of the GNU General Public License
    21 				; along with Action!.  If not, see <http://www.gnu.org/licenses/>.
    22 				;
    23 				; @com.wudsn.ide.asm.mainsourcefile=../ACTION.asm
    24
    25 B7AF				.proc mainbnk		; Proxy routines that branch into the correct bank
    26
    27 					.if	.def rom	; Only import ROM, if it's defined at all
    28 B7AF				.use 	rom		; This module heavily depends on the ROM
    29 					.endif
    30
    31 B7AF				.local statement_definitions
    32
    33 B7AF			en0	m_statement 'Error',$c0, error
Macro: M_STATEMENT [Source: ACTION.DEF.asm]
     1 B7AF 05				.byte [.len string]
     3 B7B0 45 72 72 6F 72		.byte 'Error'
     2 B7B5 C0				.byte $C0
     3 B7B6 CB 04			.word ERROR
Source: MAIN.BNK.asm
    34 B7B8 03 8A 8A 8A			.byte	3,138,138,138
    35 B7BC			en1	m_statement 'EOF',$9a, eof
Macro: M_STATEMENT [Source: ACTION.DEF.asm]
     1 B7BC 03				.byte [.len string]
     3 B7BD 45 4F 46			.byte 'EOF'
     2 B7C0 9A				.byte $9A
     3 B7C1 C0 05			.word EOF
Source: MAIN.BNK.asm
    36 B7C3			en2	m_statement 'color',$8a, fildat
Macro: M_STATEMENT [Source: ACTION.DEF.asm]
     1 B7C3 05				.byte [.len string]
     3 B7C4 63 6F 6C 6F 72		.byte 'color'
     2 B7C9 8A				.byte $8A
     3 B7CA FD 02			.word FILDAT
Source: MAIN.BNK.asm
    37 B7CC			en3	m_statement 'LIST',$8a, vars.list
Macro: M_STATEMENT [Source: ACTION.DEF.asm]
     1 B7CC 04				.byte [.len string]
     3 B7CD 4C 49 53 54			.byte 'LIST'
     2 B7D1 8A				.byte $8A
     3 B7D2 9A 04			.word VARS.LIST
Source: MAIN.BNK.asm
    38 B7D4			en4	m_statement 'device',$8a, device
Macro: M_STATEMENT [Source: ACTION.DEF.asm]
     1 B7D4 06				.byte [.len string]
     3 B7D5 64 65 76 69 63 65		.byte 'device'
     2 B7DB 8A				.byte $8A
     3 B7DC B7 00			.word DEVICE
Source: MAIN.BNK.asm
    39 B7DE			en5	m_statement 'TRACE',$8a, vars.trace
Macro: M_STATEMENT [Source: ACTION.DEF.asm]
     1 B7DE 05				.byte [.len string]
     3 B7DF 54 52 41 43 45		.byte 'TRACE'
     2 B7E4 8A				.byte $8A
     3 B7E5 C3 04			.word VARS.TRACE
Source: MAIN.BNK.asm
    40
    41 					.endl
    42
    43 B7E7			cstart	.proc				; CStart()
    44 					.if	.def bank
    45 B7E7 A0 03			ldy	#rom.ebank
    46 B7E9 8C C9 04			sty	curbank
    47 B7EC 8C 03 D5			sty	bank+ebank
    48 					.endif
    49 B7EF 4C 04 A3			jmp	editor.start
    50 					.endp
    51
    52
    53 B7F2			getname	.proc				; GetName(char)
    54 					.if	.def bank
    55 B7F2 8D 00 D5			sta	bank+lbank
    56 					.endif
    57 B7F5 20 9C A1			jsr	lgetname
    58 B7F8				m_assert_next rstbank		; falls into rstbank
Macro: M_ASSERT_NEXT [Source: ACTION.DEF.asm]
Source: MAIN.BNK.asm
    59 					.endp
    60
    61
    62 B7F8			rstbank	.proc				; RstBank()
    63 					.if	.def bank
    64 B7F8 08				php	
    65 B7F9 48				pha	
    66 B7FA 98				tya	
    67 B7FB AC C9 04			ldy	curbank
    68 B7FE 99 00 D5		rbank1	sta	bank,y
    69 B801 A8				tay	
    70 B802 68				pla	
    71 B803 28				plp
    72 					.endif
    73 B804 60			init	rts	
    74 					.endp
    75
    76
    77
    78 				;	------------
    79 B805			run_	.proc			; Run(address)
    80 B805 A0 83			ldy	#<splerr	; Reset Error routine to default handler
    81 B807 8C CC 04			sty	error+1
    82 B80A A0 B8			ldy	#>splerr
    83 B80C 8C CD 04			sty	error+2
    84 B80F 20 68 B8			jsr	lproceed
    85 B812 20 A8 B7			jsr	mainmsc.jsrind
    86 B815 4C 23 B8			jmp	editbank
    87 					.endp
    88
    89
    90 B818			compile	.proc			; Compile()
    91 					.if	.def bank
    92 B818 A0 09			ldy	#cbank
    93 B81A 8C C9 04			sty	curbank
    94 B81D 8C 09 D5			sty	bank+cbank
    95 					.endif
    96 B820 20 00 A0			jsr	compiler.ccompile
    97 					.endp
    98
    99
   100 B823			editbank .proc			; EditBank()
   101 					.if	.def bank
   102 B823 08				php	
   103 B824 48				pha	
   104 B825 98				tya
   105 B826 A0 03			ldy	#ebank
   106 B828 8C C9 04			sty	curbank
   107 B82B 4C FE B7			jmp	rstbank.rbank1
   108 					.else
   109 					rts
   110 					.endif
   111 					.endp
   112
   113
   114 B82E			getalias .proc			; GetAlias()
   115 B82E A9 01			lda	#1
   116 B830 20 7B B7			jsr	mainmsc.prop.getprop
   117 B833 E0 00			cpx	#0
   118 B835 F0 11			beq	??gal1
   119 B837 85 C0			sta	addr
   120 B839 86 C1			stx	addr+1
   121 					.if	.def bank
   122 B83B 8D 00 D5			sta	bank+lbank
   123 					.endif
   124 B83E A9 00			lda	#0
   125 B840 20 7B B7			jsr	mainmsc.prop.getprop
   126 B843 85 C2			sta	token
   127 B845 4C F8 B7			jmp	rstbank
   128
   129 B848 4C A2 B6		??gal1	jmp	mainmsc.mnum.varerr
   130 					.endp
   131
   132
   133 B84B			gnlocal	.proc			; GNlocal()
   134 					.if	.def bank
   135 B84B 8D 00 D5			sta	bank+lbank
   136 					.endif
   137 B84E 20 F4 A1			jsr	lgetname.lgnlocal
   138 B851 4C F8 B7			jmp	rstbank
   139 					.endp
   140
   141
   142 B854			cstmtlst .proc			; CStmtList()
   143 					.if	.def bank
   144 B854 A0 09			ldy	#cbank
   145 B856 8C C9 04			sty	curbank
   146 B859 8D 09 D5			sta	bank+cbank
   147 					.endif
   148 B85C 20 4B A3			jsr	compiler.ccompile.stmtlist
   149 B85F 4C 23 B8			jmp	editbank
   150 					.endp
   151
   152
   153 B862			mgett1	.proc	
   154 B862 20 23 B8			jsr	editbank
   155 B865 20 05 A9			jsr	editor.window.gettemp.gett1
   156 					.endp
   157
   158
   159
   160 B868			lproceed .proc			; LProceed()
   161 					.if	.def bank
   162 B868 A0 00			ldy	#lbank
   163 B86A 8C C9 04			sty	curbank
   164 B86D 8C 00 D5			sty	bank+lbank
   165 					.endif
   166 B870 60				rts	
   167 					.endp
   168
   169
   170 B871			options	.proc	
   171 B871 20 68 B8			jsr	lproceed
   172 B874 20 1E AE			jsr	lib.libopt.setopts
   173 B877 4C 23 B8			jmp	editbank
   174 					.endp
   175
   176
   177 B87A			getkey	.proc
   178 					.if	.def bank
   179 B87A 8D 00 D5			sta	bank+lbank
   180 					.endif
   181 B87D 20 E0 A2			jsr	lib.libkey.lgetkey
   182 B880 4C F8 B7			jmp	rstbank
   183 					.endp
   184
   185
   186 B883			splerr	.proc
   187 					.if	.def bank
   188 B883 8D 00 D5			sta	bank+lbank
   189 					.endif
   190 B886 4C 6E A3			jmp	lib.lsplerr
   191 					.endp
   192
   193
   194 B889			emloop	.proc	
   195 B889 20 23 B8			jsr	editbank
   196 B88C 4C 20 AD			jmp	editor.monitor.mloop
   197 					.endp
   198
   199
   200 B88F			getargs	.proc	
   201 B88F 48				pha			; save arg type load flag
   202 					.if	.def bank
   203 B890 8C 00 D5			sty	bank+lbank
   204 					.endif
   205 B893 A9 01			lda	#1
   206 B895 20 7B B7			jsr	mainmsc.prop.getprop
   207 B898 85 C0			sta	addr
   208 B89A 86 C1			stx	addr+1
   209
   210 B89C 68				pla	
   211 B89D D0 20			bne	??ga2		; don't load arg types
   212
   213 B89F 8D EC 05			sta	abt		; A=0
   214 B8A2 8D ED 05			sta	abt+1		; flag as temp args
   215 B8A5 8D EE 05			sta	abt+2		; (default)
   216
   217 B8A8 A0 02			ldy	#2
   218 B8AA B1 88			lda	(props),y
   219 B8AC 8D 9B 04			sta	vars.numargs
   220 B8AF F0 0E			beq	??ga2
   221 B8B1 AA				tax	
   222 B8B2 E0 09			cpx	#9
   223 B8B4 B0 09			bcs	??ga2
   224 B8B6 C8			??ga1	 iny	
   225 B8B7 B1 88			 lda	(props),y
   226 B8B9 CA				 dex	
   227 B8BA 9D B8 05			 sta	argtypes,x	; args inverted
   228 B8BD D0 F7			 bne	??ga1
   229 B8BF 4C F8 B7		??ga2	jmp	rstbank
   230 					.endp
   231
   232
   233 B8C2			prth	.proc			; call only from LBANK!
   234 					.if	.def bank
   235 B8C2 8C 03 D5			sty	bank+ebank
   236 					.endif
   237 B8C5 20 13 AF			jsr	editor.monitor.printh
   238 					.if	.def bank
   239 B8C8 8C 00 D5			sty	bank+lbank
   240 					.endif
   241 B8CB 4C A5 A3			jmp	lib.libio.chkerr
   242 					.endp
   243
   244
   245 				; go directly to DOS, do NOT pass GO,
   246 				; do NOT collect $200, but setup LIB
   247 				;------------------------------------
   248 B8CE			dret	.proc			; Dret()
   249 B8CE 20 68 B8			jsr	lproceed
   250 B8D1 6C 0A 00			jmp	(dosvec)
   251 					.endp
   252
   253 					.endp			; End of mainbnk
    59
    60 B8D4				m_align rom.ml+$08d8
Macro: M_ALIGN [Source: ACTION.DEF.asm]
     1 B8D4			align_used_end
     3 B8D8			align_end
     4 					.print "Aligning " , align_used_end, " - ", align_end, "(", align_end-align_used_end+1, " bytes free)"
     4 				Aligning $B8D4 - $B8D8($0005 bytes free)
Source: ACTION-ROM-OSS-16k.asm
    61 B8D8				.local	editor		;Main bank part of the editor
    62 B8D8				icl	"editor/EDIT.FND.asm"
Source: EDIT.FND.asm
     1 				;
     2 				;	EDIT.FND
     3 				;
     4 				; Copyright 1983 by Clinton W Parker.
     5 				; All Rights Reserved.
     6 				; Original last modified May 4, 1983.
     7 				;
     8 				; This file is part of Action!.
     9 				;
    10 				; Action! is free software: you can redistribute it and/or modify
    11 				; it under the terms of the GNU General Public License as published by
    12 				; the Free Software Foundation, either version 3 of the License, or
    13 				; (at your option) any later version.
    14 				;
    15 				; Action! is distributed in the hope that it will be useful,
    16 				; but WITHOUT ANY WARRANTY; without even the implied warranty of
    17 				; MERCHANTABILITY or FITNESS FOR A PARTICULAR PURPOSE.  See the
    18 				; GNU General Public License for more details.
    19 				;
    20 				; You should have received a copy of the GNU General Public License
    21 				; along with Action!.  If not, see <http://www.gnu.org/licenses/>.
    22 				;
    23 				; @com.wudsn.ide.asm.mainsourcefile=../ACTION.asm
    24
    25 B8D8			find	.proc			; Find()
    26 B8D8 20 9C AB			jsr	cmd.setsp
    27 B8DB 20 61 A9			jsr	dsp.savewd
    28 B8DE AD A1 04			lda	vars.lastch
    29 B8E1 C9 F8			cmp	#$f8
    30 B8E3 F0 12			beq	find2
    31 B8E5 A9 5C			lda	#<findmsg
    32 B8E7 A2 B9			ldx	#>findmsg
    33 B8E9 A0 05		find1	ldy	#>findbuf
    34 B8EB 84 A3			sty	arg3
    35 B8ED A0 28			ldy	#<findbuf
    36 B8EF 20 0E A9			jsr	window.cmdstr
    37 B8F2 A9 F8			lda	#$f8
    38 B8F4 8D A2 04			sta	vars.curch
    39
    40 B8F7 AD 28 05		find2	lda	findbuf
    41 B8FA F0 45			beq	??f7
    42
    43 B8FC A0 00		??f2	ldy	#0
    44 B8FE B1 9B			lda	(buf),y
    45 B900 A8				tay	
    46 B901 C8				iny	
    47 B902 84 A0			sty	arg0
    48
    49 B904 A4 8C		??f3	ldy	sp
    50 B906 C8				iny	
    51 B907 C4 A0			cpy	arg0
    52 B909 B0 16			bcs	??f5
    53 B90B 84 8C			sty	sp
    54 B90D A2 00			ldx	#0
    55
    56 B90F B1 9B		??f4	lda	(buf),y
    57 B911 E8				inx	
    58 B912 DD 28 05			cmp	findbuf,x
    59 B915 D0 ED			bne	??f3
    60 B917 C8				iny	
    61 B918 EC 28 05			cpx	findbuf
    62 B91B F0 28			beq	found
    63 B91D C4 A0			cpy	arg0
    64 B91F 90 EE			bcc	??f4
    65
    66 B921 20 D3 B5		??f5	jsr	mainmsc.editor.nextdwn
    67 B924 F0 09			beq	??f6
    68 B926 20 C2 B2			jsr	mainio.ldbuf
    69 B929 A9 00			lda	#0
    70 B92B 85 8C			sta	sp
    71 B92D F0 CD			beq	??f2
    72
    73 B92F 8D A2 04		??f6	sta	vars.curch
    74 B932 20 D1 B0			jsr	mainio.rstcur
    75 B935 20 C2 B2			jsr	mainio.ldbuf
    76 B938 A9 52			lda	#<notfnd
    77 B93A A2 B9			ldx	#>notfnd
    78 B93C 20 38 A9			jsr	dsp.cmdmsg
    79 B93F A9 00			lda	#0
    80 B941 8D A2 04		??f7	sta	vars.curch
    81 B944 60				rts	
    82
    83 B945 20 93 A9		found	jsr	dsp.ctrln
    84 B948 A4 8C			ldy	sp
    85 B94A 88				dey	
    86 B94B 98				tya	
    87 B94C 20 32 AA			jsr	cmd.back.back0
    88 B94F A9 FE			lda	#$fe
    89 B951 60				rts	
    90
    91 B952			notfnd	m_string 'not found'
Macro: M_STRING [Source: ACTION.DEF.asm]
     1 B952 09				.byte [.len string]
     3 B953 6E 6F 74 20 66 6F + 	.byte 'not found'
Source: EDIT.FND.asm
    92 B95C			findmsg	m_string 'Find? '
Macro: M_STRING [Source: ACTION.DEF.asm]
     1 B95C 06				.byte [.len string]
     3 B95D 46 69 6E 64 3F 20		.byte 'Find? '
Source: EDIT.FND.asm
    93
    94 					.endp
    95
    63 B963				icl	"editor/EDIT.SUB.asm"
Source: EDIT.SUB.asm
     1 				;
     2 				;	EDIT.MAN
     3 				;
     4 				; Copyright 1983 by Clinton W Parker.
     5 				; All Rights Reserved.
     6 				; Original last modified September 8, 1983.
     7 				;
     8 				; This file is part of Action!.
     9 				;
    10 				; Action! is free software: you can redistribute it and/or modify
    11 				; it under the terms of the GNU General Public License as published by
    12 				; the Free Software Foundation, either version 3 of the License, or
    13 				; (at your option) any later version.
    14 				;
    15 				; Action! is distributed in the hope that it will be useful,
    16 				; but WITHOUT ANY WARRANTY; without even the implied warranty of
    17 				; MERCHANTABILITY or FITNESS FOR A PARTICULAR PURPOSE.  See the
    18 				; GNU General Public License for more details.
    19 				;
    20 				; You should have received a copy of the GNU General Public License
    21 				; along with Action!.  If not, see <http://www.gnu.org/licenses/>.
    22 				;
    23 				; @com.wudsn.ide.asm.mainsourcefile=../ACTION.asm
    24
    25 B963			subst	.proc			; Subst()
    26 B963 20 9C AB			jsr	cmd.setsp
    27 B966 20 61 A9			jsr	dsp.savewd
    28 B969 AD A1 04			lda	vars.lastch
    29 B96C C9 7D			cmp	#$7d
    30 B96E F0 29			beq	??s2
    31 B970 48				pha	
    32 B971 A9 00			lda	#<submsg
    33 B973 A2 BA			ldx	#>submsg
    34 B975 A0 05			ldy	#>subbuf
    35 B977 84 A3			sty	arg3
    36 B979 A0 00			ldy	#<subbuf
    37 B97B 20 0E A9			jsr	window.cmdstr
    38 B97E 68				pla	
    39 				; check for ESC key
    40 B97F AE 00 05			ldx	subbuf
    41 B982 D0 07			bne	??s0
    42 B984 AE 01 05			ldx	subbuf+1
    43 B987 E0 1B			cpx	#character.escape
    44 B989 F0 0D			beq	??s1
    45 B98B C9 F8		??s0	cmp	#$f8
    46 B98D F0 0F			beq	??s3		; string already found
    47 B98F A9 0D			lda	#<formsg
    48 B991 A2 BA			ldx	#>formsg
    49 B993 20 E9 B8			jsr	find.find1
    50 B996 D0 06			bne	??s3
    51
    52 B998 60			??s1	rts	
    53
    54 B999 20 F7 B8		??s2	jsr	find.find2
    55 B99C F0 FA			beq	??s1
    56 B99E A9 7D		??s3	lda	#$7d
    57 B9A0 8D A2 04			sta	vars.curch
    58 B9A3 85 C3			sta	dirtyf		; flag line as dirty
    59 B9A5 38				sec	
    60 B9A6 AD 00 05			lda	subbuf
    61 B9A9 ED 28 05			sbc	findbuf		; get delta size
    62 B9AC 85 A3			sta	arg3
    63 B9AE 08				php			; save status for test below
    64 B9AF B0 04			bcs	??s4
    65 B9B1 A9 01			lda	#1
    66 B9B3 E5 A3			sbc	arg3		; negate delta size
    67 B9B5 18			??s4	clc	
    68 B9B6 65 9B			adc	buf
    69 B9B8 85 A0			sta	arg0
    70 B9BA A9 00			lda	#0
    71 B9BC A8				tay	
    72 B9BD 65 9C			adc	buf+1
    73 B9BF 85 A1			sta	arg1
    74 B9C1 B1 9B			lda	(buf),y
    75 B9C3 28				plp	
    76 B9C4 90 0E			bcc	??s6		; need to remove space
    77 B9C6 F0 1A			beq	??s8		; same size
    78 				; need to add space
    79 B9C8 A8				tay	
    80 B9C9 B1 9B		??s5	lda	(buf),y
    81 B9CB 91 A0			sta	(arg0),y
    82 B9CD 88				dey	
    83 B9CE C4 8C			cpy	sp
    84 B9D0 B0 F7			bcs	??s5
    85 B9D2 90 0E			bcc	??s8
    86
    87 B9D4 85 A2		??s6	sta	arg2
    88 B9D6 A4 8C			ldy	sp
    89 B9D8 88				dey	
    90 B9D9 C8			??s7	iny	
    91 B9DA B1 A0			lda	(arg0),y
    92 B9DC 91 9B			sta	(buf),y
    93 B9DE C4 A2			cpy	arg2
    94 B9E0 90 F7			bcc	??s7
    95
    96 B9E2 A4 8C		??s8	ldy	sp
    97 B9E4 A2 00			ldx	#0
    98 B9E6 F0 07			beq	??s10
    99 B9E8 E8			??s9	inx	
   100 B9E9 BD 00 05			lda	subbuf,x
   101 B9EC 91 9B			sta	(buf),y
   102 B9EE C8				iny	
   103 B9EF EC 00 05		??s10	cpx	subbuf
   104 B9F2 D0 F4			bne	??s9
   105 B9F4 18				clc	
   106 B9F5 A0 00			ldy	#0
   107 B9F7 B1 9B			lda	(buf),y
   108 B9F9 65 A3			adc	arg3
   109 B9FB 91 9B			sta	(buf),y
   110 B9FD 4C 8A A5			jmp	chr.rfrshbuf
   111
   112
   113 BA00			submsg	m_string 'Substitute? '
Macro: M_STRING [Source: ACTION.DEF.asm]
     1 BA00 0C				.byte [.len string]
     3 BA01 53 75 62 73 74 69 + 	.byte 'Substitute? '
Source: EDIT.SUB.asm
   114 BA0D			formsg	m_string 'for? '
Macro: M_STRING [Source: ACTION.DEF.asm]
     1 BA0D 05				.byte [.len string]
     3 BA0E 66 6F 72 3F 20		.byte 'for? '
Source: EDIT.SUB.asm
   115
   116 					.endp
    64 BA13				icl	"editor/EDIT.TAB.asm"
Source: EDIT.TAB.asm
     1 				;
     2 				;	EDIT.TAB
     3 				;
     4 				; Copyright 1983 by Clinton W Parker.
     5 				; All Rights Reserved.
     6 				; Original last modified March 9, 1983.
     7 				;
     8 				; This file is part of Action!.
     9 				;
    10 				; Action! is free software: you can redistribute it and/or modify
    11 				; it under the terms of the GNU General Public License as published by
    12 				; the Free Software Foundation, either version 3 of the License, or
    13 				; (at your option) any later version.
    14 				;
    15 				; Action! is distributed in the hope that it will be useful,
    16 				; but WITHOUT ANY WARRANTY; without even the implied warranty of
    17 				; MERCHANTABILITY or FITNESS FOR A PARTICULAR PURPOSE.  See the
    18 				; GNU General Public License for more details.
    19 				;
    20 				; You should have received a copy of the GNU General Public License
    21 				; along with Action!.  If not, see <http://www.gnu.org/licenses/>.
    22 				;
    23 				; @com.wudsn.ide.asm.mainsourcefile=../ACTION.asm
    24
    25 BA13			tab	.proc			; Tab()
    26 BA13 20 9C AB			jsr	cmd.setsp
    27 BA16 20 6D BA			jsr	tabloc.tabpos
    28
    29 BA19 BD A3 02		??t1	lda	tabmap,x
    30 BA1C F0 15			beq	??t3
    31 BA1E 39 3B BA			and	??onbit,y
    32 BA21 F0 0B			beq	??t2
    33 				; found tab setting
    34 BA23 84 A0			sty	arg0
    35 BA25 8A				txa	
    36 BA26 0A				asl
    37 BA27 0A				asl
    38 BA28 0A				asl
    39 BA29 05 A0			ora	arg0
    40 BA2B 4C 32 AA			jmp	cmd.back.back0	; do the tab
    41
    42 BA2E C8			??t2	iny	
    43 BA2F C0 08			cpy	#8
    44 BA31 30 E6			bmi	??t1
    45 BA33 A0 00		??t3	ldy	#0
    46 BA35 E8				inx	
    47 BA36 E0 0F			cpx	#15
    48 BA38 30 DF			bmi	??t1
    49 BA3A 60				rts	
    50
    51 BA3B 80 40 20 10 08 04 + ??onbit	.byte	$80,$40,$20,$10,8,4,2,1,0
    52 BA44 7F BF DF EF F7 FB + ??offbit	.byte	$7f,$bf,$df,$ef,$f7,$fb,$fd,$fe,$ff
    53
    54
    55 BA4D			settab	.proc
    56 BA4D 20 67 BA			jsr	tabloc
    57 BA50 BD A3 02			lda	tabmap,x
    58 BA53 19 3B BA			ora	??onbit,y
    59 BA56 9D A3 02			sta	tabmap,x
    60 BA59 60				rts	
    61 					.endp
    62
    63 BA5A			clrtab	.proc
    64 BA5A 20 67 BA			jsr	tabloc
    65 BA5D BD A3 02			lda	tabmap,x
    66 BA60 39 44 BA			and	??offbit,y
    67 BA63 9D A3 02			sta	tabmap,x
    68 BA66 60				rts	
    69 					.endp
    70
    71 BA67				.proc tabloc			; Private
    72 BA67 20 9C AB			jsr	cmd.setsp
    73 BA6A 38				sec	
    74 BA6B E9 01			sbc	#1
    75 BA6D			tabpos
    76 BA6D A8				tay	
    77 BA6E 4A				lsr
    78 BA6F 4A				lsr
    79 BA70 4A				lsr
    80 BA71 AA				tax	
    81 BA72 98				tya	
    82 BA73 29 07			and	#7
    83 BA75 A8				tay	
    84 BA76 E0 0F			cpx	#15
    85 BA78 30 02			bmi	??tp1
    86 BA7A A0 08			ldy	#8
    87 BA7C 60			??tp1	rts
    88 					.endp
    89
    90 					.endp	
    65 					.endl
    66 BA7D				m_info	editor
Macro: M_INFO [Source: ACTION.DEF.asm]
     1 					.print "EDITOR: " , EDITOR, " - ", EDITOR + .len EDITOR -1, " (", .len EDITOR,")"
     1 				EDITOR: $B8D8 - $BA7C ($01A5)
Source: ACTION-ROM-OSS-16k.asm
    67
    68 BA7D				m_align	rom.ml+$0a80,$00
Macro: M_ALIGN [Source: ACTION.DEF.asm]
     1 BA7D			align_used_end
     3 BA80			align_end
     4 					.print "Aligning " , align_used_end, " - ", align_end, "(", align_end-align_used_end+1, " bytes free)"
     4 				Aligning $BA7D - $BA80($0004 bytes free)
Source: ACTION-ROM-OSS-16k.asm
    69 BA80				icl	"ampl/AMPL.SEG.asm"
Source: AMPL.SEG.asm
     1 				;
     2 				;	AMPL.SEG
     3 				;
     4 				; Copyright 1983 by Clinton W Parker.
     5 				; All Rights Reserved.
     6 				; Original last modified October 15, 1983.
     7 				;
     8 				; This file is part of Action!.
     9 				;
    10 				; Action! is free software: you can redistribute it and/or modify
    11 				; it under the terms of the GNU General Public License as published by
    12 				; the Free Software Foundation, either version 3 of the License, or
    13 				; (at your option) any later version.
    14 				;
    15 				; Action! is distributed in the hope that it will be useful,
    16 				; but WITHOUT ANY WARRANTY; without even the implied warranty of
    17 				; MERCHANTABILITY or FITNESS FOR A PARTICULAR PURPOSE.  See the
    18 				; GNU General Public License for more details.
    19 				;
    20 				; You should have received a copy of the GNU General Public License
    21 				; along with Action!.  If not, see <http://www.gnu.org/licenses/>.
    22 				;
    23 				; @com.wudsn.ide.asm.mainsourcefile=../ACTION.asm
    24
    25 				; This file is actually part of the compiler but it is located in the main bank.
    26
    27 BA80				.use	compiler
    28
    29 = B363			getnext	= lexicon.getnext
    30
    31 				; low segment list> ..:= low segment list> low segment> | low segment>
    32 				; low segment> ..:= low segment type> low heading> (<dcl list>) (<stmt list>)
    33 				; low segment type> ..:=  PROC | low type> FUNC
    34
    35 BA80			segment	.proc
    36
    37 BA80				.use mainmsc
    38 BA80				.use cgu		; uses code generation unit
    39
    40 BA80 C9 42			cmp	#tokens.procid
    41 BA82 F0 07			beq	??proc
    42 BA84 A6 D3			ldx	nxttoken
    43 BA86 E0 41			cpx	#tokens.funcid
    44 BA88 F0 08			beq	??func
    45 BA8A 60				rts			; end of segment list
    46
    47 BA8B A9 57		??proc	lda	#tokens.funct-tokens.vart+tokens.charid-1
    48 BA8D 8D 99 04			sta	vars.type
    49 BA90 D0 09			bne	??func1		; unconditional branch
    50
    51 BA92 18			??func	clc	
    52 BA93 69 38			adc	#tokens.funct-tokens.vart
    53 BA95 8D 99 04			sta	vars.type
    54 BA98 20 63 B3			jsr	getnext
    55
    56 BA9B 20 8F A2		??func1	jsr	ccompile.makeentry
    57 BA9E 20 C6 04			jsr	segend
    58 BAA1 A5 C0			lda	addr
    59 BAA3 85 8E			sta	curproc
    60 BAA5 A5 C1			lda	addr+1
    61 BAA7 85 8F			sta	curproc+1
    62 BAA9 85 B8			sta	qglobal
    63
    64 BAAB A9 01			lda	#1
    65 BAAD 20 39 B7			jsr	stincr		; space for num args
    66
    67 BAB0 A0 03			ldy	#3
    68 BAB2 A9 00			lda	#0		; no args yet
    69 BAB4 91 88			sta	(props),y
    70 BAB6 8D C2 04			sta	vars.argbytes
    71
    72 BAB9 A8				tay	
    73 BABA			??funcst
    74 BABA 91 B3			sta	(stlocal),y
    75 BABC C8				iny			; zap local st
    76 BABD D0 FB			bne	??funcst
    77
    78 BABF A5 BD			lda	symtab
    79 BAC1 8D 97 04			sta	vars.gbase
    80 BAC4 A5 BE			lda	symtab+1
    81 BAC6 8D 98 04			sta	vars.gbase+1
    82
    83 				; space for arg list (8 bytes) and
    84 				; room for name of next .proc/func
    85 				; up to 20 letters (24 bytes)
    86 				; unused space will be reclaimed
    87 				; see Params
    88 BAC9 A9 20			lda	#32
    89 BACB 20 39 B7			jsr	stincr		; arg list space
    90
    91 BACE 20 C2 BD			jsr	trashy
    92
    93 BAD1 A5 D3			lda	nxttoken
    94 BAD3 49 07			eor	#tokens.equalid
    95 BAD5 8D 9D 04			sta	vars.param	; this is very tricky!!
    96 BAD8 D0 15			bne	??funchd
    97 BADA 20 D2 A2			jsr	ccompile.ideq	; param must = 0 here
    98 BADD C8				iny	
    99 BADE 20 FE A2			jsr	ccompile.storprops
   100 BAE1 A0 00			ldy	#0
   101 BAE3 B1 88			lda	(props),y
   102 BAE5 09 08			ora	#8
   103 BAE7 91 88			sta	(props),y	; set Sys flag
   104 BAE9 8D 9D 04			sta	vars.param
   105 BAEC 20 63 B3			jsr	getnext
   106
   107 BAEF			??funchd
   108 BAEF 20 63 B3			jsr	getnext
   109 BAF2 C9 19			cmp	#tokens.lparen
   110 BAF4 D0 16			bne	argerr
   111
   112
   113 				; low heading> ??:= low id> (= low constant>) ( (<arg dcl list>) )
   114 				; low arg dcl list> ??:= low arg dcl list> , low dcl list> | low dcl list>
   115
   116
   117 BAF6 20 63 B3			jsr	getnext
   118 BAF9 C9 18			cmp	#tokens.rparen
   119 BAFB F0 14			beq	??func2
   120
   121 BAFD			??heading
   122 BAFD 20 21 A1			jsr	ccompile.cderr.declare
   123 BB00 A6 8B			ldx	lsttoken
   124 BB02 E6 8B			inc	lsttoken	; in case 2 of two commas
   125 BB04 E0 1A			cpx	#tokens.comma
   126 BB06 F0 F5			beq	??heading
   127
   128 BB08 C9 18			cmp	#tokens.rparen
   129 BB0A F0 05			beq	??func2
   130
   131 BB0C A0 07		argerr	ldy	#errors.arger
   132 BB0E 4C 83 B8			jmp	mainbnk.splerr
   133
   134 BB11 AD 9D 04		??func2	lda	vars.param
   135 BB14 48				pha	
   136 BB15 A9 00			lda	#0
   137 BB17 8D 9D 04			sta	vars.param
   138
   139 BB1A 20 63 B3			jsr	getnext
   140 BB1D 20 21 A1			jsr	ccompile.cderr.declare	; locals
   141
   142 				; handle procedure setup here
   143 BB20 68				pla	
   144 BB21 30 41			bmi	??f4		; system .proc
   145
   146 				; get beginning of arguments and
   147 				; save actual procedure address
   148 BB23 A9 01			lda	#1
   149 BB25 20 75 B7			jsr	prop.cprop
   150 BB28 85 A0			sta	arg0
   151 BB2A 86 A1			stx	arg1
   152 BB2C 20 E0 B6			jsr	getcdoff
   153 BB2F 20 FE A2			jsr	ccompile.storprops
   154
   155 				; get space for .proc variable
   156 BB32 A9 4C			lda	#opcode.jmp_abs	; JMP
   157 BB34 20 80 BF			jsr	push1
   158 BB37 20 E0 B6			jsr	getcdoff	; fill in address
   159 BB3A 69 02			adc	#2
   160 BB3C 90 01			bcc	??fh2
   161 BB3E E8				inx	
   162 BB3F 20 A5 BF		??fh2	jsr	push2
   163
   164 				; qcode to transfer arguments to
   165 				; local frame
   166 BB42 AD C2 04		??fh3	lda	vars.argbytes
   167 BB45 F0 30			beq	??func3		; no arguments
   168 BB47 C9 03			cmp	#3
   169 BB49 B0 1C			bcs	??fh5
   170 BB4B C9 02			cmp	#2
   171 BB4D A9 8D			lda	#opcode.sta_abs ; STA abs
   172 BB4F A6 A0			ldx	arg0
   173 BB51 A4 A1			ldy	arg1
   174 BB53 90 06			bcc	??fh4
   175 BB55 A9 8E			lda	#opcode.stx_abs	; STX abs
   176 BB57 E8				inx	
   177 BB58 D0 01			bne	??fh4
   178 BB5A C8				iny	
   179 BB5B 20 B7 BF		??fh4	jsr	push3
   180 BB5E CE C2 04			dec	vars.argbytes
   181 BB61 4C 42 BB			jmp	??fh3
   182
   183 BB64 4C B1 BB		??f4	jmp	??func4
   184
   185 BB67 A2 0A		??fh5	ldx	#10
   186 BB69 20 5B BF			jsr	jsrtable
   187 BB6C A5 A0			lda	arg0
   188 BB6E A6 A1			ldx	arg1
   189 BB70 AC C2 04			ldy	vars.argbytes
   190 BB73 88				dey	
   191 BB74 20 B7 BF			jsr	push3
   192
   193 BB77 AD C3 04		??func3	lda	vars.trace	; check for trace
   194 BB7A F0 35			beq	??func4		; no trace
   195 BB7C A9 20			lda	#opcode.jsr_abs	; JSR CTrace
   196 BB7E A2 E4			ldx	#<lib.libmisc.ctrace
   197 BB80 A0 A7			ldy	#>lib.libmisc.ctrace
   198 BB82 20 B7 BF			jsr	push3
   199
   200 BB85 A0 00			ldy	#0
   201 BB87 B1 8E			lda	(curproc),y
   202 BB89 A8				tay	
   203 BB8A AA				tax	
   204 BB8B B1 8E		??f3a	lda	(curproc),y
   205 BB8D 91 0E			sta	(qcode),y
   206 BB8F 88				dey	
   207 BB90 10 F9			bpl	??f3a
   208 BB92 E8				inx	
   209 BB93 8A				txa	
   210 BB94 20 4D B7			jsr	codeincr
   211
   212 BB97 A5 A0			lda	arg0
   213 BB99 A6 A1			ldx	arg1
   214 BB9B 20 A5 BF			jsr	push2
   215
   216 BB9E A9 03			lda	#3
   217 BBA0 20 75 B7			jsr	prop.cprop
   218 BBA3 A8				tay	
   219 BBA4 AA				tax	
   220 BBA5 B1 88		??f3b	lda	(props),y
   221 BBA7 91 0E			sta	(qcode),y
   222 BBA9 88				dey	
   223 BBAA 10 F9			bpl	??f3b
   224 BBAC E8				inx	
   225 BBAD 8A				txa	
   226 BBAE 20 4D B7			jsr	codeincr
   227
   228 BBB1 20 4B A3		??func4	jsr	ccompile.stmtlist
   229 BBB4 4C 80 BA			jmp	segment
   230 					.endp
   231
    70 BBB7				icl	"ampl/AMPL.PF.asm"
Source: AMPL.PF.asm
     1 				;
     2 				;         AMPL.PF
     3 				;
     4 				; Copyright 1983 by Clinton W Parker.
     5 				; All Rights Reserved
     6 				;
     7 				; Original last modified November 3, 1983
     8 				;
     9 				; This file is part of Action!.
    10 				;
    11 				; Action! is free software: you can redistribute it and/or modify
    12 				; it under the terms of the GNU General Public License as published by
    13 				; the Free Software Foundation, either version 3 of the License, or
    14 				; (at your option) any later version.
    15 				;
    16 				; Action! is distributed in the hope that it will be useful,
    17 				; but WITHOUT ANY WARRANTY; without even the implied warranty of
    18 				; MERCHANTABILITY or FITNESS FOR A PARTICULAR PURPOSE.  See the
    19 				; GNU General Public License for more details.
    20 				;
    21 				; You should have received a copy of the GNU General Public License
    22 				; along with Action!.  If not, see <http://www.gnu.org/licenses/>.
    23 				;
    24 				; @com.wudsn.ide.asm.mainsourcefile=../ACTION.asm
    25
    26 				; This file is actually part of the compiler but it is located in the main bank.
    27
    28 BBB7			pf	.proc			; PF()
    29
    30 BBB7				.use cgu		; uses code generation unit
    31
    32 BBB7 A0 00		??ld1	ldy	#0
    33 BBB9 B1 B9			lda	(stack),y
    34 BBBB C9 90			cmp	#tokens.arrayt
    35 BBBD B0 6D			bcs	??c5a
    36 BBBF FE 4C 05			inc	abt-args,x
    37 BBC2 A0 07			ldy	#7
    38 BBC4 B1 B9			lda	(stack),y
    39 BBC6 C9 AA			cmp	#tokens.tempt+types.bytet
    40 BBC8 F0 65			beq	??c5b
    41 BBCA DE 4D 05			dec	abt+1-args,x
    42 BBCD E0 A2			cpx	#args+2
    43 BBCF 90 5E			bcc	??c5b
    44 BBD1 20 3E AB			jsr	ccompile.genops.gops
    45 BBD4 20 AF BE			jsr	load2h
    46 BBD7 A9 81			lda	#opcode.sta_izx; STA (zp,x)
    47 BBD9 20 A1 BE			jsr	op1h
    48 BBDC 4C 2F BC			jmp	??c5b
    49
    50
    51 BBDF A9 00		pf_	lda	#0		; load arg types flag
    52 BBE1 20 8F B8			jsr	mainbnk.getargs
    53 BBE4 20 35 AA			jsr	ccompile.pushst
    54 BBE7 20 63 B3			jsr	getnext
    55 BBEA A2 A0			ldx	#args
    56 BBEC 8E C2 04			stx	vars.argbytes
    57 BBEF A6 D3			ldx	nxttoken
    58 BBF1 E0 18			cpx	#tokens.rparen
    59 BBF3 D0 05			bne	??c4
    60
    61 BBF5 20 63 B3			jsr	getnext
    62 BBF8 D0 4E			bne	??c7		; unconditional branch
    63
    64 BBFA AE 9B 04		??c4	ldx	vars.numargs
    65 BBFD A0 AA			ldy	#tokens.tempt+types.bytet
    66 BBFF BD B7 05			lda	argtypes-1,x
    67 BC02 AE C2 04			ldx	vars.argbytes
    68 BC05 8E EF 05			stx	abt+3
    69 BC08 C9 7F			cmp	#$7f
    70 BC0A B0 07			bcs	??c5		; one byte arg
    71 BC0C 9D 51 05			sta	temps-args+1,x
    72 BC0F EE C2 04			inc	vars.argbytes
    73 BC12 C8				iny	
    74 BC13 9D 50 05		??c5	sta	temps-args,x
    75 BC16 EE C2 04			inc	vars.argbytes
    76 BC19 8A				txa	
    77 BC1A 20 2F AA			jsr	ccompile.storst
    78 BC1D 20 B4 A8			jsr	ccompile.getexp
    79 BC20 CE 9B 04			dec	vars.numargs
    80 BC23 30 42			bmi	callerr
    81 BC25 AE EF 05			ldx	abt+3
    82 BC28 E0 A3			cpx	#args+3
    83 BC2A 90 8B			bcc	??ld1
    84 BC2C 20 FF AB		??c5a	jsr	ccompile.cgassign
    85 BC2F A5 C2		??c5b	lda	token
    86 BC31 C9 1A			cmp	#tokens.comma
    87 BC33 F0 C5			beq	??c4
    88
    89 BC35 C9 18			cmp	#tokens.rparen
    90 BC37 D0 2E			bne	callerr
    91 				;??c6
    92 BC39 AD C2 04			lda	vars.argbytes
    93 BC3C C9 A3			cmp	#args+3
    94 BC3E B0 15			bcs	??c8
    95 BC40 C9 A2			cmp	#args+2
    96 BC42 B0 16			bcs	??c9
    97 BC44 C9 A1			cmp	#args+1
    98 BC46 B0 17			bcs	??c10
    99 BC48 20 C2 BD		??c7	jsr	trashy
   100 BC4B A0 01			ldy	#1
   101 BC4D 20 39 BF			jsr	stkaddr
   102 BC50 A9 20			lda	#opcode.jsr_abs	; JSR
   103 BC52 4C B7 BF			jmp	push3
   104
   105 BC55 A2 A2		??c8	ldx	#args+2
   106 BC57 20 6A BC			jsr	??push
   107 BC5A A2 A1		??c9	ldx	#args+1
   108 BC5C 20 6A BC			jsr	??push
   109 BC5F A2 A0		??c10	ldx	#args
   110 BC61 20 6A BC			jsr	??push
   111 BC64 4C 48 BC			jmp	??c7
   112
   113
   114 BC67 4C 0C BB		callerr	jmp	segment.argerr
   115
   116
   117 BC6A BD 4C 05		??push	lda	abt-args,x
   118 BC6D D0 08			bne	??p1
   119 BC6F BD 1A BC			lda	??ops-args,x
   120 BC72 09 04			ora	#$04
   121 BC74 4C A5 BF			jmp	push2
   122
   123 BC77 86 A0		??p1	stx	arg0
   124 BC79 20 3E AB			jsr	ccompile.genops.gops
   125 BC7C A6 A0			ldx	arg0
   126 BC7E BD 1A BC			lda	??ops-args,x
   127 				; all of this for LDX # and LDY #
   128 				; can't use OpXX for these instr.
   129 BC81 E0 A0			cpx	#args
   130 BC83 F0 2F			beq	??p4		; LDA instr.
   131 BC85 A4 A1			ldy	arg1
   132 BC87 10 1F			bpl	??p3a		; record element
   133 BC89 C0 88			cpy	#tokens.vart
   134 BC8B BC 4C 05			ldy	abt-args,x
   135 BC8E B0 1B			bcs	??p3		; not const.
   136 BC90 48				pha	
   137 BC91 84 A0			sty	arg0
   138 BC93 A0 02			ldy	#2
   139 BC95 20 F6 BE			jsr	loadi
   140 BC98 A4 A0			ldy	arg0
   141 BC9A 30 08			bmi	??p2
   142 BC9C AA				tax	
   143 BC9D 68				pla	
   144 BC9E 20 A5 BF			jsr	push2		; low byte of const
   145 BCA1 4C 5E AC			jmp	ccompile.cgassign.cga1
   146
   147 BCA4 68			??p2	pla	
   148 BCA5 4C A5 BF		??p2a	jmp	push2		; high byte
   149
   150 BCA8 BC 4C 05		??p3a	ldy	abt-args,x
   151 BCAB 10 07		??p3	bpl	??p4
   152 BCAD A6 A3			ldx	arg3
   153 BCAF F0 F4			beq	??p2a
   154 BCB1 4C B1 BE			jmp	op2h
   155
   156 BCB4 20 97 BE		??p4	jsr	op2l
   157 BCB7 4C 5E AC			jmp	ccompile.cgassign.cga1
   158
   159 BCBA A1 A2 A0		??ops	.byte	$a1,$a2,$a0	; LDA, LDX, LDY
   160 					.endp
    71 BCBD				icl	"ampl/AMPL.ARR.asm"
Source: AMPL.ARR.asm
     1 				;
     2 				;         AMPL.ARR
     3 				;
     4 				; Copyright 1983 by Clinton W Parker.
     5 				; All Rights Reserved
     6 				;
     7 				; Original last modified June 7, 1983
     8 				;
     9 				; This file is part of Action!.
    10 				;
    11 				; Action! is free software: you can redistribute it and/or modify
    12 				; it under the terms of the GNU General Public License as published by
    13 				; the Free Software Foundation, either version 3 of the License, or
    14 				; (at your option) any later version.
    15 				;
    16 				; Action! is distributed in the hope that it will be useful,
    17 				; but WITHOUT ANY WARRANTY; without even the implied warranty of
    18 				; MERCHANTABILITY or FITNESS FOR A PARTICULAR PURPOSE.  See the
    19 				; GNU General Public License for more details.
    20 				;
    21 				; You should have received a copy of the GNU General Public License
    22 				; along with Action!.  If not, see <http://www.gnu.org/licenses/>.
    23 				;
    24 				; @com.wudsn.ide.asm.mainsourcefile=../ACTION.asm
    25
    26 				; This file is actually part of the compiler but it is located in the main bank.
    27
    28 BCBD			arrref	.proc			; ArrRef()
    29
    30 BCBD				.use cgu		; uses code generation unit
    31 					
    32 BCBD A6 D3			ldx	nxttoken
    33 BCBF E0 19			cpx	#tokens.lparen
    34 BCC1 F0 33			beq	??arr0
    35 BCC3 E0 5E			cpx	#tokens.uparrow
    36 BCC5 F0 2F			beq	??arr0
    37 BCC7 A0 8C		arrvar	ldy	#tokens.vart+types.cardt	; no index!
    38 BCC9 84 C2			sty	token
    39 BCCB C9 98			cmp	#tokens.arrayt+8
    40 BCCD 90 03			bcc	??arr1
    41 BCCF			arrconst
    42 BCCF 20 B0 AA			jsr	ccompile.procref.stconst
    43 BCD2 4C 35 AA		??arr1	jmp	ccompile.pushst
    44
    45 BCD5 A0 00		??arptr	ldy	#0
    46 BCD7 B1 B9			lda	(stack),y
    47 BCD9 C9 98			cmp	#tokens.arrayt+8
    48 BCDB B0 14			bcs	??arpt1		; small array
    49 BCDD C8				iny	
    50 BCDE 20 41 BF			jsr	stkp
    51 BCE1 E0 00			cpx	#0
    52 BCE3 D0 0C			bne	??arpt1
    53 				; page zero pointer
    54 BCE5 A0 01			ldy	#1
    55 BCE7 91 B9			sta	(stack),y
    56 BCE9 88				dey	
    57 BCEA B1 B9			lda	(stack),y
    58 BCEC 09 B0			ora	#$b0		; temp array mode
    59 BCEE 91 B9			sta	(stack),y
    60 BCF0 60				rts	
    61
    62 BCF1 20 2A AA		??arpt1	jsr	ccompile.zerost
    63 BCF4 D0 12			bne	??ar0		; unconditional branch
    64
    65 BCF6 20 24 AB		??arr0	jsr	ccompile.pushnext
    66 BCF9 C9 5E			cmp	#tokens.uparrow
    67 BCFB F0 D8			beq	??arptr
    68 BCFD 20 B4 A8			jsr	ccompile.getexp
    69 BD00 C9 18			cmp	#tokens.rparen
    70 BD02 D0 6B			bne	arrerr
    71 BD04 A6 8A			ldx	op
    72 BD06 D0 67			bne	arrerr
    73 BD08 A0 07		??ar0	ldy	#7
    74 BD0A B1 B9			lda	(stack),y
    75 BD0C 48			arra0	pha	
    76 BD0D A9 8C			lda	#tokens.vart+types.cardt
    77 BD0F 91 B9			sta	(stack),y
    78 BD11 A9 01			lda	#tokens.plusid
    79 BD13 20 3C AB			jsr	ccompile.genops
    80 BD16 68				pla	
    81 BD17 C9 98			cmp	#tokens.arrayt+8
    82 BD19 B0 5C			bcs	??arsmall
    83 BD1B 29 07			and	#7
    84 BD1D AA				tax	
    85 BD1E 09 B0			ora	#$b0		; temp array mode
    86 BD20 85 A7			sta	arg7
    87 BD22 A4 A1			ldy	arg1
    88 BD24 C0 85			cpy	#tokens.constt+types.strt
    89 BD26 A0 01			ldy	#1		; clear Z flag if we branch
    90 BD28 B0 05			bcs	??ar1
    91 BD2A B1 B9			lda	(stack),y
    92 BD2C C8				iny	
    93 BD2D 11 B9			ora	(stack),y
    94 BD2F 85 E0		??ar1	sta	fr1
    95 BD31 F0 05			beq	??arint		; pointer
    96 BD33 BC 8B AF			ldy	ccompile.vartype-1,x
    97 BD36 F0 3C			beq	??arbyte
    98 				; CPY #3
    99 				; BEQ ??ARReal
   100 				; integer or cardinal
   101 BD38 20 D5 BE		??arint	jsr	gettemps
   102 BD3B A9 A1			lda	#opcode.lda_izx	; LDA (zp,x)
   103 BD3D A6 E0			ldx	fr1
   104 BD3F F0 10			beq	??ari1
   105 BD41 20 95 BE			jsr	load2l
   106 BD44 A9 0A			lda	#opcode.asl_a	; ASL A
   107 BD46 A2 08			ldx	#opcode.php_	; PHP
   108 BD48 A0 18			ldy	#opcode.clc_	; CLC
   109 BD4A 20 B7 BF			jsr	push3
   110 BD4D A9 61			lda	#opcode.adc_izx	; ADC (zp,x)
   111
   112 					.if	.def ramzap
   113 					.if	ramzap
   114 BD4F 91 A8			sta	(arg8),y
   115 					.else	
   116 					nop	
   117 					nop	
   118 					.endif
   119 					.endif
   120
   121 BD51 20 08 BE		??ari1	jsr	op1l
   122 BD54 20 97 BF			jsr	stempl
   123 BD57 A9 A1			lda	#opcode.lda_izx	; LDA (zp,x)
   124 BD59 A6 E0			ldx	fr1
   125 BD5B F0 0C			beq	??ari2
   126 BD5D 20 AF BE			jsr	load2h
   127 BD60 A9 2A			lda	#$2a		; ROL A
   128 BD62 A2 28			ldx	#$28		; PLP, restore carry
   129 BD64 20 A5 BF			jsr	push2
   130 BD67 A9 61			lda	#opcode.adc_izx ; ADC (zp,X)
   131 BD69 20 A1 BE		??ari2	jsr	op1h
   132 BD6C 4C 73 AD			jmp	ccompile.cgadd.cgadd2
   133
   134 BD6F A0 15		arrerr	ldy	#errors.arrer	; bad array ref
   135 BD71 4C 83 B8			jmp	mainbnk.splerr
   136
   137 BD74			??arbyte
   138 BD74 4C B3 AB			jmp	ccompile.codegen.cg1
   139
   140 BD77 A0 07		??arsmall	ldy	#7
   141 BD79 91 B9			sta	(stack),y	; restore correct type
   142 BD7B A5 A1			lda	arg1
   143 BD7D 10 F0			bpl	arrerr		; can't index with bool.
   144 BD7F 2C C1 BE			bit	arrmode
   145 BD82 D0 EB			bne	arrerr		; can't index with array
   146 BD84 A0 0A			ldy	#10
   147 BD86 91 B9			sta	(stack),y
   148 BD88 A0 02			ldy	#2
   149 BD8A 20 F6 BE			jsr	loadi
   150 BD8D A0 0B			ldy	#11
   151 BD8F 20 14 BF			jsr	savecd.savstk
   152 BD92 4C 14 AB			jmp	ccompile.popst
   153 					.endp
    72 BD95				icl	"ampl/AMPL.CGU.asm"
Source: AMPL.CGU.asm
     1 				;
     2 				;         AMPL.CGU
     3 				;
     4 				; Copyright 1983 by Clinton W Parker.
     5 				; All Rights Reserved
     6 				;
     7 				; Original last modified October 15, 1983
     8 				;
     9 				; This file is part of Action!.
    10 				;
    11 				; Action! is free software: you can redistribute it and/or modify
    12 				; it under the terms of the GNU General Public License as published by
    13 				; the Free Software Foundation, either version 3 of the License, or
    14 				; (at your option) any later version.
    15 				;
    16 				; Action! is distributed in the hope that it will be useful,
    17 				; but WITHOUT ANY WARRANTY; without even the implied warranty of
    18 				; MERCHANTABILITY or FITNESS FOR A PARTICULAR PURPOSE.  See the
    19 				; GNU General Public License for more details.
    20 				;
    21 				; You should have received a copy of the GNU General Public License
    22 				; along with Action!.  If not, see <http://www.gnu.org/licenses/>.
    23 				;
    24 				; @com.wudsn.ide.asm.mainsourcefile=../ACTION.asm
    25
    26 				; This file is actually part of the compiler but it is located in the main bank.
    27
    28 BD95				.proc cgu		; Code generation unit
    29
    30 BD95				.use compiler
    31 BD95				.use mainmsc
    32
    33 BD95			loady	.proc			; LoadY() value in arg12
    34 BD95 AD A0 04			lda	vars.cury
    35 BD98 C5 AC			cmp	arg12
    36 BD9A F0 25			beq	??lyret
    37 BD9C 20 67 BF			jsr	push0
    38 BD9F C9 01			cmp	#1
    39 BDA1 D0 08			bne	??ly2
    40 BDA3 A9 88			lda	#$88		; DEY
    41 BDA5 20 87 BF		??ly1	jsr	insrt1
    42 BDA8 4C BA BD			jmp	??ly4
    43
    44 BDAB C9 00		??ly2	cmp	#0
    45 BDAD D0 04			bne	??ly3
    46 BDAF A9 C8			lda	#$c8		; INY
    47 BDB1 D0 F2			bne	??ly1
    48
    49 BDB3 A9 A0		??ly3	lda	#$a0
    50 BDB5 A6 AC			ldx	arg12
    51 BDB7 20 AC BF			jsr	insrt2		; LDY #0 or #1
    52
    53 BDBA A5 AC		??ly4	lda	arg12
    54 BDBC 8D A0 04			sta	vars.cury
    55 BDBF A4 AD			ldy	arg13
    56
    57 BDC1 60			??lyret	rts	
    58 					.endp
    59
    60 BDC2			trashy	.proc			; TrashY()
    61 BDC2 A9 FF			lda	#$ff
    62 BDC4 8D A0 04			sta	vars.cury
    63 BDC7 60				rts	
    64 					.endp
    65
    66 BDC8			loadx	.proc			; LoadX(,,offset)
    67 				; NOTE:  this .proc can only be called
    68 				; from Op below, see ??LXC
    69 BDC8 B1 B9			lda	(stack),y
    70 BDCA C8				iny	
    71 BDCB 2C C3 BE			bit	tempmode
    72 BDCE D0 0F			bne	??lxt
    73 BDD0 2C C2 BE			bit	cnstmode
    74 BDD3 F0 15			beq	??lxc
    75 				; var to load
    76 BDD5 20 4D BF			jsr	stkprop
    77 BDD8 F0 0B			beq	??lxz
    78 BDDA A9 AE			lda	#$ae		; LDX addr16
    79 BDDC 4C B7 BF			jmp	push3
    80
    81 BDDF B1 B9		??lxt	lda	(stack),y
    82 BDE1 AA				tax	
    83 BDE2 DE 50 05			dec	temps-args,x
    84 BDE5 A9 A6		??lxz	lda	#$a6		; LDX addr
    85 BDE7 4C A5 BF			jmp	push2
    86
    87 BDEA B1 B9		??lxc	lda	(stack),y
    88 				; TAX
    89 				; LDA #$A2 ; LDX data
    90 				; BNE ??LX1
    91 BDEC 85 AC			sta	arg12
    92 BDEE 68				pla	
    93 BDEF 68				pla	
    94 BDF0 68				pla	
    95 BDF1 A8				tay	
    96 BDF2 D0 34			bne	op1l.??opv	; unconditional branch
    97 					.endp
    98
    99 BDF4			optype	.proc
   100 BDF4 29 20			and	#$20
   101 BDF6 F0 41			beq	op1l.??operr	; con. exp.
   102 BDF8 20 39 BF			jsr	stkaddr
   103 BDFB A5 AC			lda	arg12
   104 BDFD F0 2E			beq	op1l.??opv1
   105 BDFF E8				inx	
   106 BE00 D0 2B			bne	op1l.??opv1
   107 BE02 C8				iny	
   108 BE03 4C 2D BE			jmp	op1l.??opv1
   109 					.endp
   110
   111 BE06			load1l	.proc			; Load1L()
   112 BE06 A9 A1			lda	#opcode.lda_izx	; LDA (op,x)
   113 BE08				m_assert_next op1l	; falls into op1l
Macro: M_ASSERT_NEXT [Source: ACTION.DEF.asm]
Source: AMPL.CGU.asm
   114 					.endp
   115
   116 BE08			op1l	.proc			; Op1L(op)
   117 BE08 48				pha	
   118 BE09 A5 A2			lda	arg2
   119 BE0B A0 08			ldy	#8
   120 BE0D A2 00		oplow	ldx	#0
   121 BE0F 86 AC		ophigh	stx	arg12
   122 				; NOTE:  the order of following
   123 				; comparisons is important!
   124 BE11 AA				tax	
   125 BE12 10 E0			bpl	optype
   126 BE14 2C C4 BE			bit	procmode
   127 BE17 D0 1A			bne	??opp
   128 BE19 2C C1 BE			bit	arrmode
   129 BE1C D0 1E			bne	??opa		; array
   130 BE1E 2C C3 BE			bit	tempmode
   131 BE21 D0 68			bne	??opt		; temp
   132 BE23 2C C2 BE			bit	cnstmode
   133 BE26 F0 51			beq	??opc		; constant
   134 				; var if we get here
   135 BE28 20 4D BF		??opv	jsr	stkprop
   136 BE2B F0 62			beq	??opz		; page zero var
   137 				; 16 bit address
   138 BE2D 68			??opv1	pla	
   139 BE2E 09 0C			ora	#$0c		; addr16
   140 BE30 4C B7 BF			jmp	push3
   141
   142 BE33 E6 AC		??opp	inc	arg12		; skip JMP byte
   143 BE35 29 08			and	#8
   144 BE37 F0 EF			beq	??opv
   145 BE39 4C C0 AE		??operr	jmp	ccompile.chkcond.conderr		; cond. exp.
   146
   147 BE3C 2C C2 BE		??opa	bit	cnstmode
   148 BE3F D0 1E			bne	??opa2
   149 BE41 20 95 BD			jsr	loady
   150 				; LDA arg7
   151 				; AND #$F7
   152 				; STA arg7 ; flag Y reg used
   153 BE44 A9 00			lda	#0
   154 BE46 85 AC			sta	arg12
   155 BE48 A9 10			lda	#$10		; (addr),Y
   156 BE4A 85 AA		??opa1	sta	arg10
   157 BE4C B1 B9			lda	(stack),y
   158 BE4E 18				clc	
   159 BE4F 65 AC			adc	arg12
   160 BE51 C9 A0			cmp	#args
   161 BE53 90 2F			bcc	??opc2
   162 BE55 C9 B0			cmp	#args+16
   163 BE57 B0 2B			bcs	??opc2
   164 BE59 AA				tax	
   165 BE5A DE 50 05			dec	temps-args,x	; free temp
   166 BE5D 90 26			bcc	??opc3		; unconditional branch
   167
   168 BE5F 98			??opa2	tya			; small array
   169 BE60 48				pha	
   170 BE61 C8				iny	
   171 BE62 C8				iny	
   172 BE63 20 C8 BD			jsr	loadx
   173 BE66 68				pla	
   174 BE67 A8				tay	
   175 BE68 20 4D BF			jsr	stkprop
   176 BE6B F0 06			beq	??opa2a		; page zero
   177 BE6D 68				pla	
   178 BE6E 09 1C			ora	#$1c		; addr16,X
   179 BE70 4C B7 BF			jmp	push3
   180
   181 BE73 68			??opa2a	pla	
   182 BE74 09 14			ora	#$14		; addr,X
   183 BE76 4C A5 BF			jmp	push2
   184
   185 BE79 A9 08		??opc	lda	#$08		; data
   186 BE7B 85 AA			sta	arg10
   187 BE7D A5 AC			lda	arg12
   188 BE7F F0 01			beq	??opc1
   189 BE81 C8				iny	
   190 BE82 B1 B9		??opc1	lda	(stack),y
   191 BE84 AA			??opc2	tax	
   192 BE85 68			??opc3	pla	
   193 BE86 05 AA			ora	arg10		; op mode
   194 BE88 4C A5 BF			jmp	push2
   195
   196 BE8B A9 04		??opt	lda	#$04		; addr
   197 BE8D D0 BB			bne	??opa1		; unconditional branch
   198
   199 BE8F 68			??opz	pla	
   200 BE90 09 04			ora	#$04		; addr
   201 BE92 4C A5 BF			jmp	push2
   202 					.endp
   203
   204 BE95			load2l	.proc			; Load2L()
   205 BE95 A9 A1			lda	#opcode.lda_izx	; LDA (op,x)
   206 BE97				m_assert_next op2l	; falls into op2l
Macro: M_ASSERT_NEXT [Source: ACTION.DEF.asm]
Source: AMPL.CGU.asm
   207 					.endp
   208
   209 BE97			op2l	.proc			; Op2L(op)
   210 BE97 48				pha	
   211 BE98 A5 A1			lda	arg1
   212 BE9A A0 01			ldy	#1
   213 BE9C 4C 0D BE			jmp	op1l.oplow
   214 					.endp
   215
   216 BE9F			load1h	.proc			; Load1H()
   217 BE9F A9 A1			lda	#opcode.lda_izx	; LDA (op,x)
   218 BEA1				m_assert_next op1h	; falls into op1h
Macro: M_ASSERT_NEXT [Source: ACTION.DEF.asm]
Source: AMPL.CGU.asm
   219 					.endp
   220
   221 BEA1			op1h	.proc			; Op1H(op)
   222 BEA1 A6 A4			ldx	arg4
   223 BEA3 F0 17			beq	op2h.ophz
   224 BEA5 48				pha	
   225 BEA6 A5 A2			lda	arg2
   226 BEA8 A0 08			ldy	#8
   227 BEAA A2 01		op1h1	ldx	#1
   228 BEAC 4C 0F BE			jmp	op1l.ophigh
   229 					.endp
   230
   231 BEAF			load2h	.proc			; Load2H()
   232 BEAF A9 A1			lda	#opcode.lda_izx	; LDA (op,x)
   233 BEB1				m_assert_next op2h	; falls into op2h
Macro: M_ASSERT_NEXT [Source: ACTION.DEF.asm]
Source: AMPL.CGU.asm
   234 					.endp
   235
   236 BEB1			op2h	.proc			; Op2H(op)
   237 BEB1 A6 A3			ldx	arg3
   238 BEB3 F0 07			beq	ophz
   239 BEB5 48				pha	
   240 BEB6 A5 A1			lda	arg1
   241 BEB8 A0 01			ldy	#1
   242 BEBA D0 EE			bne	op1h.op1h1
   243
   244 BEBC 09 08		ophz	ora	#$08
   245 BEBE 4C A5 BF			jmp	push2
   246 					.endp
   247
   248 BEC1 10			arrmode		.byte	$10
   249 BEC2 08			cnstmode	.byte	$08
   250 BEC3 20			tempmode	.byte	$20
   251 BEC4 40			procmode	.byte	$40
   252
   253 				; see CG
   254 BEC5			outtype	.local
   255 BEC5 82 03 84 06			.byte	$82,3,$84,types.realt
   256 BEC9 03 03 84 06			.byte	3,3,$84,types.realt
   257 BECD 84 84 84 06			.byte	$84,$84,$84,types.realt
   258 BED1 06 06 06 06			.byte	types.realt,types.realt,types.realt,types.realt
   259 					.endl
   260
   261 BED5			gettemps	.proc		; GetTemps()
   262 BED5 A2 B0			ldx	#args+16
   263 BED7 A0 07			ldy	#7
   264 BED9 CA			??gtl1	dex	
   265 BEDA CA				dex	
   266 BEDB 88				dey	
   267 BEDC 30 15			bmi	??gtlerr	; exp. too complex
   268 BEDE BD 50 05			lda	temps-args,x
   269 BEE1 D0 F6			bne	??gtl1
   270
   271 BEE3 FE 50 05			inc	temps-args,x
   272 BEE6 A5 A5			lda	arg5		; see if byte temp
   273 BEE8 F0 06			beq	??gt2		; yes
   274 BEEA FE 51 05			inc	temps-args+1,x
   275
   276 					.if	.def ramzap
   277 					.if	ramzap
   278 BEED FE F5 A0			inc	libmath.sargs,x
   279 					.else	
   280 					nop	
   281 					nop	
   282 					nop	
   283 					.endif
   284 					.endif
   285
   286 BEF0 86 A9		??gt2	stx	arg9
   287 BEF2 60				rts	
   288
   289 BEF3			??gtlerr
   290 BEF3 4C 1B AA			jmp	ccompile.experr
   291 					.endp
   292
   293 BEF6			loadi	.proc			; LoadI(,,offset)
   294 BEF6 B1 B9			lda	(stack),y
   295 BEF8 85 AF			sta	arg15
   296 BEFA AA				tax	
   297 BEFB 88				dey	
   298 BEFC B1 B9			lda	(stack),y
   299 BEFE 85 AE			sta	arg14
   300 BF00 60				rts	
   301 					.endp
   302
   303 BF01			ldcdz	.proc			; LdCdZ(,,stkoff)
   304 BF01 A9 00			lda	#0
   305 BF03				m_assert_next loadcd	; falls into loadcd
Macro: M_ASSERT_NEXT [Source: ACTION.DEF.asm]
Source: AMPL.CGU.asm
   306 					.endp
   307
   308 BF03			loadcd	.proc			; LoadCd(cdoff,,stkoff)
   309 BF03 18				clc	
   310 BF04 71 B9			adc	(stack),y
   311 BF06 85 0E			sta	qcode
   312 BF08 C8				iny	
   313 BF09 A9 00			lda	#0
   314 BF0B 71 B9			adc	(stack),y
   315 BF0D 85 0F			sta	qcode+1
   316 BF0F 60				rts	
   317 					.endp
   318
   319 BF10			savecd	.proc			; SaveCd(,,offset)
   320 BF10 A5 0E			lda	qcode
   321 BF12 A6 0F			ldx	qcode+1
   322 BF14 91 B9		savstk	sta	(stack),y
   323 BF16 8A				txa	
   324 BF17 C8				iny	
   325 BF18 91 B9			sta	(stack),y
   326 BF1A 60				rts	
   327 					.endp
   328
   329 BF1B			relop	.proc			; RelOp()
   330 BF1B A5 A6			lda	arg6
   331 BF1D 10 02			bpl	??ro1
   332 BF1F E6 A8			inc	arg8
   333 BF21 60			??ro1	rts	
   334 					.endp
   335
   336 BF22			chkzero	.proc	
   337 BF22 A5 A3			lda	arg3
   338 BF24 D0 0C			bne	??cz1
   339 BF26 A5 A1			lda	arg1
   340 BF28 10 08			bpl	??cz1		; not const
   341 BF2A C9 88			cmp	#tokens.vart
   342 BF2C B0 04			bcs	??cz1
   343 BF2E A0 01			ldy	#1
   344 BF30 B1 B9			lda	(stack),y
   345 BF32 60			??cz1	rts	
   346 					.endp
   347
   348 BF33			opcd1	.proc			; OpCd1()
   349 BF33 A6 A8			ldx	arg8
   350 BF35 BD 93 AF			lda	ccompile.cgopscd+1,x
   351 BF38 60				rts	
   352 					.endp
   353
   354 BF39			stkaddr	.proc			; StkAddr(,,offset)
   355 BF39 B1 B9			lda	(stack),y
   356 BF3B AA				tax	
   357 BF3C C8				iny	
   358 BF3D B1 B9			lda	(stack),y
   359 BF3F A8				tay	
   360 BF40 60				rts	
   361 					.endp
   362
   363 BF41			stkp	.proc			; StkP(,,offset)
   364 BF41 20 39 BF			jsr	stkaddr
   365 BF44 A9 01			lda	#1
   366 BF46 4C 7F B7			jmp	prop.gprop
   367 					.endp
   368
   369 BF49			stkpz	.proc			; StkPZ(,,offset)
   370 BF49 A9 00			lda	#0
   371 BF4B				m_assert_next stkps	; falls into stkps
Macro: M_ASSERT_NEXT [Source: ACTION.DEF.asm]
Source: AMPL.CGU.asm
   372 					.endp
   373
   374 BF4B			stkps	.proc			; StkPS(,,offset)
   375 BF4B 85 AC			sta	arg12
   376 BF4D				m_assert_next stkprop	; falls into stkprop
Macro: M_ASSERT_NEXT [Source: ACTION.DEF.asm]
Source: AMPL.CGU.asm
   377 					.endp
   378
   379 BF4D			stkprop	.proc			; StkProp(,,offset)
   380 BF4D 20 41 BF			jsr	stkp
   381 BF50 18				clc	
   382 BF51 65 AC			adc	arg12
   383 BF53 AA				tax	
   384 BF54 C8				iny	
   385 BF55 B1 88			lda	(props),y
   386 BF57 69 00			adc	#0
   387 BF59 A8				tay	
   388 BF5A 60				rts	
   389 					.endp
   390
   391 BF5B			jsrtable	.proc		; JSRTable(,index)
   392 				;.IF ramzap
   393 				;  LDY LTab+1,X
   394 				;  LDA LTab,X
   395 				;.ELSE
   396 BF5B BC E5 04			ldy	lsh+1,x
   397 BF5E BD E4 04			lda	lsh,x
   398 				;.ENDIF
   399 BF61 AA				tax	
   400 BF62 A9 20			lda	#opcode.jsr_abs	; JSR
   401 BF64 4C B7 BF			jmp	push3
   402 					.endp
   403
   404 BF67			push0	.proc			; Push0()
   405 BF67 84 AD			sty	arg13
   406 BF69 A4 0E			ldy	qcode
   407 BF6B 84 AE			sty	arg14
   408 BF6D A4 0F			ldy	qcode+1
   409 BF6F 84 AF			sty	arg15
   410 BF71 A0 00			ldy	#0
   411 BF73 60				rts	
   412 					.endp
   413
   414 BF74			pushtrue	.proc		; PushTrue(op)
   415 BF74 20 80 BF			jsr	push1
   416 BF77 A0 0A			ldy	#10
   417 BF79 20 10 BF			jsr	savecd
   418 BF7C A9 00			lda	#0		; no other true branches
   419 BF7E 85 A9			sta	arg9
   420 BF80				m_assert_next push1	; falls into push1
Macro: M_ASSERT_NEXT [Source: ACTION.DEF.asm]
Source: AMPL.CGU.asm
   421 					.endp
   422
   423 BF80			push1	.proc			; Push1(op)
   424 BF80 20 67 BF			jsr	push0
   425 BF83 91 AE			sta	(arg14),y
   426 BF85 F0 05			beq	insrt1.i11
   427 BF87				m_assert_next insrt1	; falls into insrt1
Macro: M_ASSERT_NEXT [Source: ACTION.DEF.asm]
Source: AMPL.CGU.asm
   428 					.endp
   429
   430 BF87			insrt1	.proc			; Insrt1(op)
   431 BF87 A0 01			ldy	#1
   432 BF89 20 CD BF			jsr	addcdsp
   433 BF8C C8			i11	iny	
   434 BF8D 98				tya	
   435 BF8E 4C 4D B7			jmp	codeincr
   436 					.endp
   437
   438 BF91			stemph	.proc			; STempH()
   439 BF91 E6 A9			inc	arg9
   440 BF93 A0 0C			ldy	#12
   441 BF95 D0 02			bne	stempl.stemp	; Unconditional branch
   442 					.endp
   443
   444 BF97			stempl	.proc			; STempL()
   445 BF97 A0 0A			ldy	#10
   446 BF99 20 10 BF		stemp	jsr	savecd
   447 BF9C A5 A9			lda	arg9
   448 BF9E AA				tax	
   449 BF9F 29 FE			and	#$fe		; set to low address
   450 BFA1 85 A9			sta	arg9
   451 BFA3 A9 85			lda	#opcode.sta_zp	; STA addr
   452 BFA5				m_assert_next push2	; falls into push2
Macro: M_ASSERT_NEXT [Source: ACTION.DEF.asm]
Source: AMPL.CGU.asm
   453 					.endp
   454
   455 BFA5			push2	.proc			; Push2(op,,data)
   456 BFA5 20 67 BF			jsr	push0
   457 BFA8 91 AE			sta	(arg14),y
   458 BFAA F0 05			beq	insrt2.i21
   459 BFAC				m_assert_next insrt2	; falls into insrt2
Macro: M_ASSERT_NEXT [Source: ACTION.DEF.asm]
Source: AMPL.CGU.asm
   460 					.endp
   461
   462 BFAC			insrt2	.proc			; Insrt2(op,data)
   463 BFAC A0 02			ldy	#2
   464 BFAE 20 CD BF			jsr	addcdsp
   465 BFB1 8A			i21	txa	
   466 BFB2 C8				iny	
   467 BFB3 91 AE			sta	(arg14),y
   468 BFB5 D0 D5			bne	insrt1.i11
   469 BFB7				m_assert_next push3	; falls into push3
Macro: M_ASSERT_NEXT [Source: ACTION.DEF.asm]
Source: AMPL.CGU.asm
   470 					.endp
   471
   472 BFB7			push3	.proc			; Push3(op,data16)
   473 BFB7 20 67 BF			jsr	push0
   474 BFBA 91 AE			sta	(arg14),y
   475 BFBC F0 07			beq	insrt3.i31
   476 				; flass into insrt3
   477 					.endp
   478
   479 BFBE			insrt3	.proc			; Insrt3(op,data16)
   480 BFBE 84 AD			sty	arg13
   481 BFC0 A0 03			ldy	#3
   482 BFC2 20 CD BF		i30	jsr	addcdsp
   483 BFC5 8A			i31	txa	
   484 BFC6 A6 AD			ldx	arg13
   485 BFC8 C8				iny	
   486 BFC9 91 AE			sta	(arg14),y
   487 BFCB D0 E4			bne	insrt2.i21	; Unconditional? Hmmm.
   488 					.endp
   489
   490 BFCD			addcdsp	.proc	
   491 				; AddCdSp(,,size) add qcode space
   492 				; does NOT change qcode or codeOff
   493 BFCD 48				pha	
   494 BFCE 18				clc	
   495 BFCF 98				tya	
   496 BFD0 65 AE			adc	arg14
   497 BFD2 85 AA			sta	arg10
   498 BFD4 A9 00			lda	#0
   499 BFD6 65 AF			adc	arg15
   500 BFD8 85 AB			sta	arg11
   501 BFDA 38				sec	
   502 BFDB A5 0E			lda	qcode
   503 BFDD E5 AE			sbc	arg14
   504
   505 BFDF A8				tay	
   506 BFE0 F0 0B			beq	??acsret
   507 BFE2 B1 AE		??acs1	lda	(arg14),y
   508 BFE4 91 AA			sta	(arg10),y
   509 BFE6 88				dey	
   510 BFE7 D0 F9			bne	??acs1
   511
   512 BFE9 B1 AE			lda	(arg14),y
   513 BFEB 91 AA			sta	(arg10),y
   514
   515 BFED 68			??acsret	pla	
   516 BFEE 91 AE			sta	(arg14),y
   517 BFF0 60				rts	
   518 					.endp
   519
   520 				;	›arrayt+8	; small array?
   521 					.endp	; End of cgu
    73
    74 BFF1				m_align	$bffa,$00
Macro: M_ALIGN [Source: ACTION.DEF.asm]
     1 BFF1			align_used_end
     3 BFFA			align_end
     4 					.print "Aligning " , align_used_end, " - ", align_end, "(", align_end-align_used_end+1, " bytes free)"
     4 				Aligning $BFF1 - $BFFA($000A bytes free)
Source: ACTION-ROM-OSS-16k.asm
    75 BFFA E7 B7			.word	mainbnk.cstart
    76 BFFC 00 05			.word	$0500		; Boot disk and start cart.
    77 BFFE 04 B8			.word	mainbnk.rstbank.init
    78
    79 				;	ACTION! 3.6 - S.T.
    80 				;	------------------
    81 					opt	f-
    82 C000				org	rom.ll
    83 					opt	f+
    84 A000				icl	"ampl/AMPL.MTH.asm"
Source: AMPL.MTH.asm
     1 				;
     2 				;	AMPL.MTH
     3 				;
     4 				; Copyright 1982 by Clinton W Parker.
     5 				; All Rights Reserved.
     6 				; Original last modified September 9, 1983.
     7 				;
     8 				; This file is part of Action!.
     9 				;
    10 				; Action! is free software: you can redistribute it and/or modify
    11 				; it under the terms of the GNU General Public License as published by
    12 				; the Free Software Foundation, either version 3 of the License, or
    13 				; (at your option) any later version.
    14 				;
    15 				; Action! is distributed in the hope that it will be useful,
    16 				; but WITHOUT ANY WARRANTY; without even the implied warranty of
    17 				; MERCHANTABILITY or FITNESS FOR A PARTICULAR PURPOSE.  See the
    18 				; GNU General Public License for more details.
    19 				;
    20 				; You should have received a copy of the GNU General Public License
    21 				; along with Action!.  If not, see <http://www.gnu.org/licenses/>.
    22 				;
    23 				; @com.wudsn.ide.asm.mainsourcefile=../ACTION.asm
    24
    25 A000				.proc libmath
    26
    27 = 0083			??a	equ	aflast+1
    28 = 0082			??b	equ	aflast
    29 = 0085			??c	equ	afcur+1
    30 = 0084			??d	equ	afcur
    31 = 0086			??rl	equ	afsize
    32 = 0087			??rh	equ	afsize+1
    33 = 00C0			??t1	equ	addr
    34 = 00C1			??t2	equ	addr+1
    35 = 00C2			??sign	equ	token
    36 				;
    37 				;	    MultI(op1, op2)
    38 				; op2 is in c & d
    39 				;  r = ab * cd
    40 				;  r = (a*d + c*b)*2^8 + b*d
    41 A000			multi	.proc
    42 A000 20 6C A0			jsr	smops
    43 A003 A6 82			ldx	??b
    44 A005 F0 1B			beq	??mc5
    45 A007 86 C0			stx	??t1
    46 A009 A6 84			ldx	??d
    47 A00B F0 15			beq	??mc5
    48 A00D CA				dex
    49 A00E 86 C1			stx	??t2
    50 A010 A2 08			ldx	#8
    51 A012 0A			??mc3	asl		; b*d, 16 bit result
    52 A013 26 87			rol	??rh
    53 A015 06 C0			asl	??t1
    54 A017 90 06			bcc	??mc4
    55 A019 65 C1			adc	??t2
    56 A01B 90 02			bcc	??mc4
    57 A01D E6 87			inc	??rh
    58 A01F CA			??mc4	dex
    59 A020 D0 F0			bne	??mc3
    60 A022 85 86		??mc5	sta	??rl
    61 A024 A5 82			lda	??b
    62 A026 A6 85			ldx	??c
    63 A028 20 4A A0			jsr	mulb		; b*c, 8 bit result
    64 A02B A5 83			lda	??a
    65 A02D A6 84			ldx	??d
    66 A02F 20 4A A0			jsr	mulb		; a*d, 8 bit result
    67 				;
    68 A032			??setsign
    69 A032 A4 C2			ldy	??sign
    70 A034 10 13			bpl	??ss2
    71
    72 					.if	.def ramzap
    73 					.if	ramzap
    74 A036 9D 4A A0			sta	mulb,x
    75 					.else
    76 					nop
    77 					nop
    78 					nop
    79 					.endif
    80 					.endif
    81
    82 A039 85 86		??ss1	sta	??rl
    83 A03B 86 87			stx	??rh
    84 A03D 38				sec
    85 A03E A9 00			lda	#0
    86 A040 E5 86			sbc	??rl
    87 A042 A8				tay
    88 A043 A9 00			lda	#0
    89 A045 E5 87			sbc	??rh
    90 A047 AA				tax
    91 A048 98				tya
    92 A049 60			??ss2	rts
    93 					.endp
    94 				;
    95 				;
    96 A04A			mulb	.proc
    97 A04A F0 1B			beq	??mb3
    98 A04C CA				dex
    99 A04D 86 C1			stx	??t2
   100 A04F AA				tax
   101 A050 F0 15			beq	??mb3
   102 A052 86 C0			stx	??t1
   103 A054 A9 00			lda	#0
   104 A056 A2 08			ldx	#8
   105 A058 0A			??mb1	asl
   106 A059 06 C0			asl	??t1
   107 A05B 90 02			bcc	??mb2
   108 A05D 65 C1			adc	??t2
   109 A05F CA			??mb2	dex
   110 A060 D0 F6			bne	??mb1
   111 A062 18				clc
   112 A063 65 87			adc	??rh
   113 A065 85 87			sta	??rh
   114 A067 A5 86		??mb3	lda	??rl
   115 A069 A6 87			ldx	??rh
   116 A06B 60				rts
   117 					.endp
   118 				;
   119 A06C			smops	.proc
   120 A06C 86 C2			stx	??sign
   121 A06E E0 00			cpx	#0		; check signs
   122 A070 10 03			bpl	??smo1
   123 A072 20 39 A0			jsr	multi.??ss1
   124 A075 85 82		??smo1	sta	??b
   125 A077 86 83			stx	??a
   126 A079 A5 85			lda	??c
   127 A07B 10 0E			bpl	??smo2
   128 A07D AA				tax
   129 A07E 45 C2			eor	??sign
   130 A080 85 C2			sta	??sign
   131 A082 A5 84			lda	??d
   132 A084 20 39 A0			jsr	multi.??ss1
   133 A087 85 84			sta	??d
   134 A089 86 85			stx	??c
   135 A08B A9 00		??smo2	lda	#0
   136 A08D 85 87			sta	??rh
   137 A08F 60				rts
   138 					.endp
   139 				;
   140 A090			divi	.proc
   141 A090 20 6C A0			jsr	smops		; DivC(op1, op2)
   142 				; see MultC above
   143 A093 A5 85			lda	??c
   144 A095 F0 27			beq	??dsmall
   145 				;
   146 				;??dlarge
   147 A097 A2 08			ldx	#8
   148 A099 26 82		??dl1	rol	??b
   149 A09B 26 83			rol	??a
   150 A09D 26 87			rol	??rh
   151 A09F 38				sec
   152 A0A0 A5 83			lda	??a
   153 A0A2 E5 84			sbc	??d
   154 A0A4 A8				tay
   155 A0A5 A5 87			lda	??rh
   156 A0A7 E5 85			sbc	??c
   157 A0A9 90 04			bcc	??dl2		; overflow, don't subtract
   158 A0AB 85 87			sta	??rh
   159 A0AD 84 83			sty	??a
   160 A0AF CA			??dl2	dex
   161 A0B0 D0 E7			bne	??dl1
   162 A0B2 A5 82			lda	??b
   163 A0B4 2A				rol
   164 A0B5 A2 00			ldx	#0
   165 A0B7 A4 83			ldy	??a
   166 A0B9 84 86			sty	??rl		; save low byte of REM
   167 A0BB 4C 32 A0			jmp	multi.??setsign
   168 				;
   169 A0BE A2 10		??dsmall	ldx	#16
   170 A0C0 26 82		??ds1	rol	??b
   171 A0C2 26 83			rol	??a
   172 A0C4 2A				rol
   173 A0C5 B0 04			bcs	??ds1a		; keep track of shift output
   174 A0C7 C5 84			cmp	??d
   175 A0C9 90 03			bcc	??ds2		; overflow, don't subtract
   176 A0CB E5 84		??ds1a	sbc	??d
   177 A0CD 38				sec			; for carry out in ROL A above
   178 A0CE CA			??ds2	dex
   179 A0CF D0 EF			bne	??ds1
   180 A0D1 26 82			rol	??b
   181 A0D3 26 83			rol	??a
   182 A0D5 85 86			sta	??rl
   183 A0D7 A5 82			lda	??b
   184 A0D9 A6 83			ldx	??a
   185 A0DB 4C 32 A0			jmp	multi.??setsign
   186 					.endp
   187 				;
   188 A0DE			remi	.proc
   189 A0DE 20 90 A0			jsr	divi
   190 A0E1 A5 86			lda	??rl
   191 A0E3 A6 87			ldx	??rh
   192 A0E5 60				rts
   193 					.endp
   194 				;
   195 A0E6			rshift	.proc
   196 A0E6 A4 84			ldy	??d		; RShift(val, cnt)
   197 A0E8 F0 0A			beq	??rshret
   198 A0EA 86 85			stx	??c
   199 A0EC 46 85		??rsh1	lsr	??c
   200 A0EE 6A				ror
   201 A0EF 88				dey
   202 A0F0 D0 FA			bne	??rsh1
   203 A0F2 A6 85			ldx	??c
   204 A0F4 60			??rshret	rts
   205 					.endp
   206 				;
   207 				;	saves args for call
   208 A0F5			sargs	.proc
   209 A0F5 85 A0			sta	arg0
   210 A0F7 86 A1			stx	arg1
   211 A0F9 84 A2			sty	arg2
   212 A0FB 18				clc
   213 A0FC 68				pla
   214 A0FD 85 84			sta	afcur
   215 A0FF 69 03			adc	#3		; jump over data
   216 A101 A8				tay
   217 A102 68				pla
   218 A103 85 85			sta	afcur+1
   219 A105 69 00			adc	#0
   220 A107 48				pha
   221 A108 98				tya
   222 A109 48				pha
   223 A10A A0 01			ldy	#1
   224 A10C B1 84			lda	(afcur),y	; local address
   225 A10E 85 82			sta	aflast
   226 A110 C8				iny
   227 A111 B1 84			lda	(afcur),y
   228 A113 85 83			sta	aflast+1
   229 A115 C8				iny
   230 A116 B1 84			lda	(afcur),y	; # of bytes
   231 A118 A8				tay
   232 A119 B9 A0 00		??sa1	lda	args,y
   233 A11C 91 82			sta	(aflast),y
   234 A11E 88				dey
   235 A11F 10 F8			bpl	??sa1
   236 				; check for break key
   237 A121 A5 11			lda	brkkey
   238 A123 D0 05			bne	??sa2
   239 A125 E6 11			inc	brkkey
   240 A127 4C DA A7			jmp	lib.libmisc.break
   241 A12A 60			??sa2	rts
   242 					.endp
   243 				;
   244 				; IToReal(int) -> FR0
   245 				;IToReal STX ??sign
   246 				; JSR ??SetSign
   247 				; STA FR0
   248 				; STX FR0+1
   249 				; JSR IFP
   250 				;:FSign LDA ??sign
   251 				; BPL ??Rem1
   252 				; JSR FMOVE
   253 				; JSR ZFR0
   254 				; JMP FSUB
   255 				; RToInt() real in FR0
   256 				;RToInt LDA FR0
   257 				; STA ??sign
   258 				; JSR ??FSign
   259 				; JSR FPI
   260 				; LDA FR0
   261 				; LDA FR0+1
   262 				; JMP ??SetSign
   263
   264 					.endp	; end of libmath
    85 A12B				icl	"ampl/AMPL.SYM.asm"
Source: AMPL.SYM.asm
     1 				;
     2 				;	AMPL.SYM
     3 				;
     4 				; Copyright 1982 by Clinton W Parker.
     5 				; All Rights Reserved.
     6 				; Original last modified June 29, 1983.
     7 				;
     8 				; This file is part of Action!.
     9 				;
    10 				; Action! is free software: you can redistribute it and/or modify
    11 				; it under the terms of the GNU General Public License as published by
    12 				; the Free Software Foundation, either version 3 of the License, or
    13 				; (at your option) any later version.
    14 				;
    15 				; Action! is distributed in the hope that it will be useful,
    16 				; but WITHOUT ANY WARRANTY; without even the implied warranty of
    17 				; MERCHANTABILITY or FITNESS FOR A PARTICULAR PURPOSE.  See the
    18 				; GNU General Public License for more details.
    19 				;
    20 				; You should have received a copy of the GNU General Public License
    21 				; along with Action!.  If not, see <http://www.gnu.org/licenses/>.
    22 				;
    23 				; @com.wudsn.ide.asm.mainsourcefile=../ACTION.asm
    24
    25 A12B			stm	.proc			; STM(table)
    26 A12B 85 A2			sta	arg2
    27 A12D 86 A3			stx	arg3
    28 A12F 85 A4			sta	arg4
    29 A131 E8				inx
    30 A132 86 A5			stx	arg5
    31 A134 A4 AF			ldy	arg15
    32 A136 84 AD			sty	arg13
    33 A138 B1 A2		??stm1	lda	(arg2),y
    34 A13A 85 CA			sta	nxtaddr+1
    35 A13C F0 16			beq	??stm3
    36 A13E B1 A4			lda	(arg4),y
    37 A140 85 C9			sta	nxtaddr
    38 A142 A0 00			ldy	#0
    39 A144 B1 C9		??stm2	lda	(nxtaddr),y
    40 A146 51 BD			eor	(symtab),y
    41 A148 2D CA 04			and	stmask
    42 A14B D0 08			bne	??stm4
    43 A14D C4 AE			cpy	arg14
    44 A14F C8				iny
    45 A150 90 F2			bcc	??stm2
    46 A152 B1 C9			lda	(nxtaddr),y	; matched
    47 A154 60			??stm3	rts
    48 A155 E6 AD		??stm4	inc	arg13		; try next entry
    49 A157 A4 AD			ldy	arg13
    50 A159 C4 AF			cpy	arg15
    51 A15B D0 DB			bne	??stm1
    52 A15D A0 03			ldy	#errors.gster
    53 A15F A5 A3			lda	arg3
    54 A161 C5 B2			cmp	stglobal+1
    55 A163 F0 01			beq	??stm5
    56 A165 C8				iny			; short form for errors.lster
    57 A166 4C 83 B8		??stm5	jmp	mainbnk.splerr
    58 					.endp
    59
    60 A169 6C FE 04		stmres	jmp	(stmradr)	; this normally goes to ISTMres below
    61
    62 A16C			istmres .proc			; STMres() lookup reserved names
    63 A16C A4 AE			ldy	arg14
    64 A16E C0 08			cpy	#8
    65 A170 A9 FF			lda	#$ff		; if name too long!
    66 A172 B0 1F			bcs	stmr3		; not reserved name
    67 A174 C8				iny
    68 A175 84 A0			sty	arg0
    69 A177 BE 2E A2			ldx	reserved_words.rwstrt-2,y
    70 A17A 86 A1		??stmr1 stx	arg1
    71 A17C A0 01			ldy	#1
    72 A17E BD 37 A2		??stmr2 lda	reserved_words.resw1,x
    73 A181 30 10			bmi	stmr3
    74 A183 51 BD			eor	(symtab),y
    75 A185 2D CA 04			and	stmask
    76 A188 D0 0A			bne	??stmr4
    77 A18A E8				inx
    78 A18B C8				iny
    79 A18C C4 A0			cpy	arg0
    80 A18E 90 EE			bcc	??stmr2
    81 				; we have a match
    82 A190 BD 37 A2			lda	reserved_words.resw1,x 	; get token value
    83 A193 60			stmr3	rts
    84 				;
    85 A194 18			??stmr4 clc
    86 A195 A5 A1			lda	arg1
    87 A197 65 A0			adc	arg0
    88 A199 AA				tax
    89 A19A D0 DE			bne	??stmr1 	; try next entry
    90 					.endp
    91
    92 A19C			lgetname	.proc		; GetName(char)
    93 A19C A0 00			ldy	#0
    94 A19E 8D AD 04			sta	vars.frstchar
    95 A1A1 AA				tax
    96 A1A2 09 20			ora	#$20
    97 A1A4 85 AF			sta	arg15		; initial hash
    98 A1A6 8A				txa
    99 A1A7 C8			??gname1 iny
   100 A1A8 84 AE			sty	arg14
   101 A1AA 91 BD			sta	(symtab),y
   102 A1AC 09 20			ora	#$20
   103 A1AE 06 AF			asl	arg15
   104 A1B0 65 AF			adc	arg15
   105 A1B2 85 AF			sta	arg15
   106 A1B4 20 91 B4			jsr	lexicon.nextchar
   107 A1B7 A4 AE			ldy	arg14
   108 A1B9 C9 5F			cmp	#'_'
   109 A1BB F0 EA			beq	??gname1
   110 A1BD 20 19 B7			jsr	mainmsc.alphanum
   111 A1C0 D0 E5			bne	??gname1
   112 A1C2 98				tya
   113 A1C3 A0 00			ldy	#0
   114 A1C5 91 BD			sta	(symtab),y
   115 A1C7 C6 8D			dec	choff		; put character back
   116 A1C9 20 69 A1			jsr	stmres		; check for res. name
   117 A1CC 10 C5			bpl	istmres.stmr3	; return
   118 A1CE A5 B8			lda	qglobal
   119 A1D0 F0 09			beq	gnglobal
   120 A1D2 A5 B3			lda	stlocal
   121 A1D4 A6 B4			ldx	stlocal+1
   122 A1D6 20 2B A1			jsr	stm
   123 A1D9 D0 B8			bne	istmres.stmr3	; return
   124 				;
   125 A1DB			gnglobal
   126 A1DB A5 B1			lda	stglobal
   127 A1DD A6 B2			ldx	stglobal+1
   128 A1DF AC AD 04			ldy	vars.frstchar
   129 A1E2 CC C4 04			cpy	vars.bigst
   130 A1E5 10 04			bpl	??gng1
   131 A1E7 A5 CE			lda	stg2
   132 A1E9 A6 CF			ldx	stg2+1
   133 A1EB 20 2B A1		??gng1	jsr	stm
   134 A1EE D0 A3			bne	istmres.stmr3	; return
   135 A1F0 A5 B8			lda	qglobal
   136 A1F2 F0 0C			beq	newentry
   137 				;
   138 A1F4			lgnlocal
   139 A1F4 A5 B3			lda	stlocal
   140 A1F6 A6 B4			ldx	stlocal+1
   141 A1F8 20 2B A1			jsr	stm
   142 A1FB D0 96			bne	istmres.stmr3	;return
   143
   144 					.if	.def ramzap
   145 					.if	ramzap
   146 A1FD FE 2B A1			inc	stm,x
   147 					.else
   148 					nop
   149 					nop
   150 					nop
   151 					.endif
   152 					.endif
   153
   154 					.endp
   155
   156 				;
   157 A200			newentry	.proc		; Make new entry in symbol table
   158 A200 A5 BE			lda	symtab+1
   159 A202 91 A2			sta	(arg2),y
   160 A204 A5 BD			lda	symtab
   161 A206 91 A4			sta	(arg4),y
   162 A208 A9 1F			lda	#<lib.statement_definitions.libst
   163 A20A A2 AC			ldx	#>lib.statement_definitions.libst
   164 A20C 20 2B A1			jsr	stm		; lookup shadow name
   165 A20F A9 88			lda	#undec
   166 A211 A4 AE			ldy	arg14
   167 A213 C8				iny
   168 A214 91 BD			sta	(symtab),y
   169 A216 A5 C9			lda	nxtaddr
   170 A218 C8				iny
   171 A219 91 BD			sta	(symtab),y	; save shadow entry
   172 A21B A5 CA			lda	nxtaddr+1
   173 A21D C8				iny
   174 A21E 91 BD			sta	(symtab),y
   175 A220 A5 BD			lda	symtab
   176 A222 85 C9			sta	nxtaddr
   177 A224 A6 BE			ldx	symtab+1
   178 A226 86 CA			stx	nxtaddr+1
   179 A228 C8				iny
   180 A229 98				tya
   181 A22A 20 39 B7			jsr	mainmsc.stincr
   182 A22D A9 88			lda	#undec
   183 A22F 60				rts
   184 					.endp
   185
   186 A230				.local reserved_words
   187 A230 00			rwstrt	.byte	0
   188 A231 01				.byte	resw2-resw1
   189 A232 14				.byte	resw3-resw1
   190 A233 35				.byte	resw4-resw1
   191 A234 68				.byte	resw5-resw1
   192 A235 7B				.byte	resw6-resw1
   193 A236 98				.byte	resw7-resw1
   194 				;
   195 A237 FF			resw1	.byte	$ff
   196 				;
   197 A238 44 4F 62		resw2	.byte	'DO',tokens.doid
   198 A23B 46 49 63			.byte	'FI',tokens.fi
   199 				;	.byte 'FO',esac
   200 A23E 49 46 50			.byte	'IF',tokens.ifid
   201 A241 4F 44 64			.byte	'OD',tokens.odid
   202 				;	.byte 'OF',of
   203 A244 4F 52 05			.byte	'OR',tokens.orid
   204 A247 54 4F 65			.byte	'TO',tokens.toid
   205 A24A FF				.byte	$ff
   206 				;
   207 A24B 41 4E 44 06		resw3	.byte	'AND',tokens.andid
   208 A24F 46 4F 52 54			.byte	'FOR',tokens.forid
   209 				;	.byte 'GET',get
   210 A253 49 4E 54 22			.byte	'INT',tokens.intid
   211 A257 4C 53 48 0F			.byte	'LSH',tokens.lshid
   212 A25B 4D 4F 44 0D			.byte	'MOD',tokens.remid
   213 				; 	.byte 'NOT',notId
   214 A25F 52 53 48 10			.byte	'RSH',tokens.rshid
   215 A263 53 45 54 44			.byte	'SET',tokens.setid
   216 A267 58 4F 52 0E			.byte	'XOR',tokens.xorid
   217 A26B FF				.byte	$ff
   218 				;
   219 A26C 42 59 54 45 21	resw4	.byte	'BYTE',tokens.byteid
   220 A271 43 41 52 44 23		.byte	'CARD',tokens.cardid
   221 				; 	.byte 'CASE',caseId
   222 A276 43 48 41 52 20		.byte	'CHAR',tokens.charid
   223 A27B 45 4C 53 45 61		.byte	'ELSE',tokens.elseid
   224 				; 	.byte 'ESAC',esac
   225 A280 45 58 49 54 53		.byte	'EXIT',tokens.exitid
   226 A285 46 55 4E 43 41		.byte	'FUNC',tokens.funcid
   227 A28A 50 52 4F 43 42		.byte	'PROC',tokens.procid
   228 				; 	.byte 'REAL',real
   229 A28F 53 54 45 50 66		.byte	'STEP',tokens.stepid
   230 A294 54 48 45 4E 60		.byte	'THEN',tokens.thenid
   231 A299 54 59 50 45 46		.byte	'TYPE',tokens.typeid
   232 A29E FF				.byte	$ff
   233 				;
   234 A29F 41 52 52 41 59 40	resw5	.byte	'ARRAY',tokens.arrayid
   235 A2A5 55 4E 54 49 4C 58		.byte	'UNTIL',tokens.untilid
   236 A2AB 57 48 49 4C 45 51		.byte	'WHILE',tokens.whileid
   237 A2B1 FF				.byte	$ff
   238 				;
   239 A2B2 44 45 46 49 4E 45 + resw6	.byte	'DEFINE',tokens.defineid
   240 				;	.byte 'DOWNTO',downto
   241 A2B9 45 4C 53 45 49 46 + 	.byte	'ELSEIF',tokens.elseif
   242 A2C0 4D 4F 44 55 4C 45 + 	.byte	'MODULE',tokens.modid
   243 A2C7 52 45 54 55 52 4E + 	.byte	'RETURN',tokens.retid
   244 A2CE FF				.byte	$ff
   245 				;
   246 A2CF 49 4E 43 4C 55 44 + resw7	.byte	'INCLUDE',tokens.getid
   247 A2D7 50 4F 49 4E 54 45 + 	.byte	'POINTER',tokens.pointerid
   248 A2DF FF				.byte	$ff
   249
   250 					.endl
    86
    87 A2E0				.local lib
    88 A2E0				icl 	"lib/LIB.KEY.asm"
Source: LIB.KEY.asm
     1 				;
     2 				;	LIB.KEY
     3 				;
     4 				; Copyright 1983 by Clinton W Parker.
     5 				; All Rights Reserved.
     6 				; Original last modified September 28, 1983.
     7 				;
     8 				; This file is part of Action!.
     9 				;
    10 				; Action! is free software: you can redistribute it and/or modify
    11 				; it under the terms of the GNU General Public License as published by
    12 				; the Free Software Foundation, either version 3 of the License, or
    13 				; (at your option) any later version.
    14 				;
    15 				; Action! is distributed in the hope that it will be useful,
    16 				; but WITHOUT ANY WARRANTY; without even the implied warranty of
    17 				; MERCHANTABILITY or FITNESS FOR A PARTICULAR PURPOSE.  See the
    18 				; GNU General Public License for more details.
    19 				;
    20 				; You should have received a copy of the GNU General Public License
    21 				; along with Action!.  If not, see <http://www.gnu.org/licenses/>.
    22 				;
    23 				; @com.wudsn.ide.asm.mainsourcefile=../ACTION.asm
    24
    25 A2E0				.proc libkey
    26
    27 A2E0			lgetkey .proc			; Get next key in buffer
    28 A2E0 18				clc			; Blink cursor
    29 A2E1 A5 14			lda	rtclok+2
    30 A2E3 69 0E			adc	#14
    31 A2E5 AA				tax
    32 A2E6 AD FC 02		bc1	lda	ch		; Key down?
    33 A2E9 49 FF			eor	#$ff
    34 A2EB D0 0F			bne	gk0
    35 A2ED E4 14			cpx	rtclok+2
    36 A2EF 10 F5			bpl	bc1
    37 A2F1 A0 00			ldy	#0
    38 A2F3 B1 5E			lda	(oldadr),y
    39 A2F5 49 80			eor	#$80
    40 A2F7 91 5E			sta	(oldadr),y
    41 A2F9 4C E0 A2			jmp	lgetkey
    42 				;
    43 A2FC A0 00		gk0	ldy	#0
    44 A2FE A5 5D			lda	oldchr
    45 A300 49 80			eor	#$80
    46 A302 91 5E			sta	(oldadr),y	; Restore cursor
    47 A304 AE 2B 02			ldx	srtimr		; Faster repeat
    48 A307 E0 0C			cpx	#$0c
    49 A309 B0 38			bcs	gk5
    50 A30B E0 04			cpx	#4
    51 A30D 90 05			bcc	gk2
    52 A30F A2 03			ldx	#3
    53 A311 8E 2B 02		gk1	stx	srtimr
    54 A314 AD FC 02		gk2	lda	ch
    55 A317 C9 C0			cmp	#$c0
    56 A319 90 05			bcc	gk3		; Not Ctrl-Shft
    57 				;cskey
    58 A31B 20 5F A3			jsr	click
    59 A31E 30 13			bmi	gk4		; Unconditional branch
    60
    61 A320 29 3F		gk3	and	#$3f
    62 A322 C9 3C			cmp	#$3c		; Caps key
    63 A324 F0 21			beq	caps
    64 A326 C9 27			cmp	#$27		; Atari key
    65 A328 F0 2A			beq	atari
    66 				;gkey
    67 A32A A2 70			ldx	#$70
    68 A32C A9 07			lda	#7		; GETCHR
    69 A32E 85 11			sta	brkkey		; Ignore BREAK key
    70 A330 20 40 B3			jsr	screen.putch.putch2
    71 A333 AE 2B 02		gk4	ldx	srtimr
    72 A336 E0 0A			cpx	#10
    73 A338 B0 05			bcs	gkret
    74 A33A A2 03			ldx	#3
    75 A33C 8E 2B 02			stx	srtimr
    76 A33F 8D A2 04		gkret	sta	vars.curch
    77 A342 60				rts
    78 A343 A2 14		gk5	ldx	#20
    79 A345 D0 CA			bne	gk1
    80 A347 AD FC 02		caps	lda	ch
    81 A34A 29 C0			and	#$c0
    82 A34C 8D BE 02			sta	shflok
    83 A34F 20 5F A3		caps1	jsr	click
    84 A352 30 8C			bmi	lgetkey
    85 A354 AD B6 02		atari	lda	invflg
    86 A357 49 80			eor	#$80
    87 A359 8D B6 02			sta	invflg
    88 A35C 4C 4F A3			jmp	caps1
    89 					.endp
    90
    91 A35F			click	.proc			; Click() click the keyboard
    92 A35F A2 7F			ldx	#$7f
    93 A361 8E 1F D0		loop	stx	consol
    94 A364 8E 0A D4			stx	wsync
    95 A367 CA				dex
    96 A368 10 F7			bpl	loop
    97 A36A 8E FC 02			stx	ch		; Set $ff to indicate no key is pressed
    98 A36D 60				rts
    99 					.endp
   100
   101 					.endp			; End of libkey
    89 A36E				icl 	"lib/SPL.ERR.asm"
Source: SPL.ERR.asm
     1 				;
     2 				;	SPL.ERR
     3 				;
     4 				; Copyright 1983 by Clinton W Parker.
     5 				; All Rights Reserved.
     6 				; Original last modified July 30, 1983.
     7 				;
     8 				; This file is part of Action!.
     9 				;
    10 				; Action! is free software: you can redistribute it and/or modify
    11 				; it under the terms of the GNU General Public License as published by
    12 				; the Free Software Foundation, either version 3 of the License, or
    13 				; (at your option) any later version.
    14 				;
    15 				; Action! is distributed in the hope that it will be useful,
    16 				; but WITHOUT ANY WARRANTY; without even the implied warranty of
    17 				; MERCHANTABILITY or FITNESS FOR A PARTICULAR PURPOSE.  See the
    18 				; GNU General Public License for more details.
    19 				;
    20 				; You should have received a copy of the GNU General Public License
    21 				; along with Action!.  If not, see <http://www.gnu.org/licenses/>.
    22 				;
    23 				; @com.wudsn.ide.asm.mainsourcefile=../ACTION.asm
    24
    25 A36E			lsplerr .proc			; SPLErr(,,error)
    26 A36E A5 91			lda	top+1
    27 A370 F0 12			beq	spler1
    28
    29 				; set pointer to error
    30 A372 AE 9F 04			ldx	vars.curwdw
    31 A375 A5 C4			lda	spln
    32 A377 9D 80 04			sta	vars.w1+wsp,x
    33 A37A A5 C5			lda	curln
    34 A37C 9D 88 04			sta	vars.w1+wcur,x
    35 A37F A5 C6			lda	curln+1
    36 A381 9D 89 04			sta	vars.w1+wcur+1,x
    37
    38 A384 20 E1 B0		spler1	jsr	mainio.syserr
    39 A387 20 FE B1			jsr	mainio.puteol
    40 A38A 20 9F B1			jsr	mainio.printbuf
    41 A38D A9 00			lda	#cio_channel.zero
    42 A38F A2 07			ldx	#<mainio.sermsg
    43 A391 A0 B1			ldy	#>mainio.sermsg
    44 A393 20 6E B0			jsr	mainio.output
    45 A396 A9 00			lda	#0
    46 A398 8D E3 02			sta	initad+1
    47 A39B A2 50			ldx	#<numbuf
    48 A39D A0 05			ldy	#>numbuf
    49 A39F 20 0C B0			jsr	mainio.print
    50 A3A2 4C 89 B8			jmp	mainbnk.emloop
    51 					.endp
    90 A3A5				icl 	"lib/LIB.IO.asm"
Source: LIB.IO.asm
     1 				;
     2 				;	LIB.IO
     3 				;
     4 				; Copyright 1983 by Clinton W Parker.
     5 				; All Rights Reserved.
     6 				; Original last modified August 13, 1983.
     7 				;
     8 				; This file is part of Action!.
     9 				;
    10 				; Action! is free software: you can redistribute it and/or modify
    11 				; it under the terms of the GNU General Public License as published by
    12 				; the Free Software Foundation, either version 3 of the License, or
    13 				; (at your option) any later version.
    14 				;
    15 				; Action! is distributed in the hope that it will be useful,
    16 				; but WITHOUT ANY WARRANTY; without even the implied warranty of
    17 				; MERCHANTABILITY or FITNESS FOR A PARTICULAR PURPOSE.  See the
    18 				; GNU General Public License for more details.
    19 				;
    20 				; You should have received a copy of the GNU General Public License
    21 				; along with Action!.  If not, see <http://www.gnu.org/licenses/>.
    22 				;
    23 				; @com.wudsn.ide.asm.mainsourcefile=../ACTION.asm
    24
    25 A3A5				.proc libio
    26
    27 				;
    28 				; PROC ChkErr=*(BYTE result, block, errCode)
    29 				; checks for error return from CIO
    30 				; Sets EOF(block) to true on error
    31 				; does not call Error if EOF error ($88)
    32 				; see Hardware manual for CIO details
    33 A3A5			chkerr	.proc			; PROC ChkErr=*(BYTE result, block, errCode)
    34 A3A5 10 16			bpl	??ce2
    35 A3A7 C0 88			cpy	#cio_error.eof	; EOF
    36 A3A9 F0 08			beq	??ce1
    37 A3AB 98				tya
    38 A3AC C0 80			cpy	#cio_error.break ; BREAK key
    39 A3AE F0 11			beq	break1
    40 A3B0 4C CB 04			jmp	error
    41
    42 A3B3 8A			??ce1	txa
    43 A3B4 4A				lsr
    44 A3B5 4A				lsr
    45 A3B6 4A				lsr
    46 A3B7 4A				lsr
    47 A3B8 AA				tax
    48 A3B9 98				tya
    49 A3BA 9D C0 05			sta	eof,x
    50 A3BD			??ce2
    51 					.if	.def ramzap
    52 					.if	ramzap
    53 A3BD DE 95 A3			dec	chkerr-$10,x
    54 					.else
    55 					nop
    56 					nop
    57 					nop
    58 					.endif
    59 					.endif
    60 A3C0 60				rts
    61 					.endp
    62 				;
    63 A3C1			break1	.proc			; Break1(error)
    64 A3C1 A2 01			ldx	#1
    65 A3C3 86 11			stx	brkkey
    66 A3C5 48				pha
    67 A3C6 20 DA A7			jsr	libmisc.break
    68 A3C9 68				pla
    69 A3CA A8				tay
    70 A3CB 60			??pfe	rts
    71 					.endp
    72
    73 				; PROC PrintF(STRING f, CARD a1, a2, a3, a4, a5)
    74 				; outputs a1-a5 to default device
    75 				; using format f.  Any non '%' char
    76 				; in f is output directly.  '%' char
    77 				; is interpreted as follows:
    78 				;    %S - output next arg as string
    79 				;    %I - output next arg as signed number
    80 				;    %U - output next arg as unsigned number
    81 				;    %C - output next arg as CHAR
    82 				;    %H - output next arg as HEX
    83 				;    %% - output '%' char
    84 				;    %E - output EOL
    85 				; any other char after % is treated
    86 				; the same as %U.
    87 				;
    88 A3CC			prtf	.proc		; PROC PrintF(STRING f, CARD a1, a2, a3, a4, a5)
    89 A3CC 85 C0			sta	addr
    90 A3CE 86 C1			stx	addr+1
    91 A3D0 8C F0 05			sty	temps
    92 A3D3 A0 00			ldy	#0
    93 A3D5 B1 C0			lda	(addr),y
    94 A3D7 85 C2			sta	token
    95 A3D9 E6 C2			inc	token
    96 A3DB A2 0D			ldx	#13
    97 A3DD B5 A2		??pf1	lda	args+2,x
    98 A3DF 9D F0 05			sta	temps,x
    99 A3E2 CA				dex
   100 A3E3 D0 F8			bne	??pf1
   101 A3E5 86 8B			stx	lsttoken
   102 A3E7 86 8A			stx	op
   103 A3E9 E6 8A		??pf2	inc	op
   104 A3EB A4 8A			ldy	op
   105 A3ED C4 C2			cpy	token
   106 A3EF B0 DA			bcs	break1.??pfe	; return
   107 A3F1 B1 C0			lda	(addr),y
   108 A3F3 C9 25			cmp	#'%'
   109 A3F5 D0 0F			bne	??pf3
   110 A3F7 E6 8A			inc	op
   111 A3F9 C8				iny
   112 A3FA B1 C0			lda	(addr),y
   113 A3FC C9 25			cmp	#'%'
   114 A3FE F0 06			beq	??pf3
   115 A400 C9 45			cmp	#'E'
   116 A402 D0 08			bne	??pf4
   117 A404 A9 9B			lda	#eol
   118 A406 20 CE A4		??pf3	jsr	put
   119 A409 4C E9 A3			jmp	??pf2
   120 				;
   121 A40C A4 8B		??pf4	ldy	lsttoken
   122 A40E E6 8B			inc	lsttoken
   123 A410 E6 8B			inc	lsttoken
   124 A412 85 A0			sta	args
   125 A414 B9 F0 05			lda	temps,y
   126 A417 BE F1 05			ldx	temps+1,y
   127 A41A A4 A0			ldy	args
   128 A41C C0 43			cpy	#'C'
   129 A41E F0 E6			beq	??pf3
   130 A420 C0 53			cpy	#'S'
   131 A422 D0 06			bne	??pf5
   132 A424 20 7F A4			jsr	prt
   133 A427 4C E9 A3			jmp	??pf2
   134 A42A C0 49		??pf5	cpy	#'I'
   135 A42C D0 06			bne	??pf6
   136 A42E 20 12 A5			jsr	prti
   137 A431 4C E9 A3			jmp	??pf2
   138 A434 C0 48		??pf6	cpy	#'H'
   139 A436 D0 06			bne	??pf7
   140 A438 20 C2 B8			jsr	mainbnk.prth
   141 A43B 4C E9 A3			jmp	??pf2
   142 A43E 20 E6 A4		??pf7	jsr	prtc
   143 A441 4C E9 A3			jmp	??pf2
   144 					.endp
   145
   146 				; PROC Open(BYTE dev, STRING fileSpec, BYTE mode, aux2)
   147 				; opens fileSpec and assigns it to IOCB dev
   148 A444			opn	.proc			; PROC Open(BYTE dev, STRING fileSpec, BYTE mode, aux2)
   149 A444 48				pha
   150 A445 86 A1			stx	arg1
   151 A447 84 A2			sty	arg2
   152 A449 A8				tay
   153 A44A A9 00			lda	#0
   154 A44C 99 C0 05			sta	eof,y
   155 A44F A8				tay
   156 A450 B1 A1			lda	(arg1),y
   157 A452 91 9B			sta	(buf),y
   158 A454 A8				tay
   159 A455 C8				iny
   160 A456 A9 9B			lda	#eol
   161 A458 D0 02			bne	??op2		; unconditional branch
   162 A45A B1 A1		??op1	lda	(arg1),y
   163 A45C 91 9B		??op2	sta	(buf),y
   164 A45E 88				dey
   165 A45F D0 F9			bne	??op1
   166 A461 68				pla
   167 A462 A6 9B			ldx	buf
   168 A464 A4 9C			ldy	buf+1
   169 A466 20 04 B0			jsr	mainio.open
   170 A469 4C A5 A3			jmp	chkerr
   171 					.endp
   172
   173 				; PROC PrintE(STRING str)
   174 				; outputs str to default IOCB with EOL
   175 A46C			prte	.proc			; PROC PrintE(STRING str)
   176 A46C 86 A1			stx	arg1
   177 A46E AA				tax
   178 A46F A4 A1			ldy	arg1
   179 A471 A5 B7			lda	device
   180 A473				m_assert_next prtde	; falls into PrintDE
Macro: M_ASSERT_NEXT [Source: ACTION.DEF.asm]
Source: LIB.IO.asm
   181 					.endp
   182
   183
   184 				;
   185 				; PROC PrintDE(BYTE dev, STRING str)
   186 				; outputs str to IOCB dev appended with an EOL
   187 A473			prtde	.proc			; PROC PrintE(STRING str)
   188 A473 20 0C B0			jsr	mainio.print
   189 A476 4C A5 A3			jmp	chkerr
   190 					.endp
   191
   192 				; PROC Close(BYTE dev)
   193 				; closes IOCB dev
   194 A479			clos	.proc			; PROC Close(BYTE dev)
   195 A479 20 26 B0			jsr	mainio.close
   196 A47C 4C A5 A3			jmp	chkerr
   197 					.endp
   198
   199 				; PROC Print(STRING str)
   200 				; outputs str to default IOCB
   201 A47F			prt	.proc			; PROC Print(STRING str)
   202 A47F 86 A1			stx	arg1
   203 A481 AA				tax
   204 A482 A4 A1			ldy	arg1
   205 A484 A5 B7			lda	device
   206 A486				m_assert_next prtd	; falls into PrintD
Macro: M_ASSERT_NEXT [Source: ACTION.DEF.asm]
Source: LIB.IO.asm
   207 					.endp
   208
   209 				; PROC PrintD(BYTE dev, STRING str)
   210 				; outputs str to IOCB dev
   211 A486			prtd	.proc			; PROC PrintD(BYTE dev, STRING str)
   212 A486 20 6E B0			jsr	mainio.output
   213 A489 4C A5 A3			jmp	chkerr
   214 					.endp
   215
   216 				; PROC InputS(STRING str)
   217 				; same as InputSD, but uses default IOCB
   218 A48C			ins_	.proc			; PROC InputS(STRING str)
   219 A48C 86 A2			stx	arg2
   220 A48E AA				tax
   221 A48F A4 A2			ldy	arg2
   222 A491 A5 B7			lda	device
   223 A493				m_assert_next insd	; falls into InputSD
Macro: M_ASSERT_NEXT [Source: ACTION.DEF.asm]
Source: LIB.IO.asm
   224 					.endp
   225
   226 				; PROC InputSD(BYTE dev, STRING str)
   227 				; see Input, size set to 255
   228 A493			insd	.proc			; PROC InputSD(BYTE dev, STRING str)
   229 A493 48				pha
   230 A494 A9 FF			lda	#255
   231 A496 85 A3			sta	arg3
   232 A498 68				pla
   233 A499				m_assert_next inmd	; falls into InputMD
Macro: M_ASSERT_NEXT [Source: ACTION.DEF.asm]
Source: LIB.IO.asm
   234 					.endp
   235
   236 				; PROC InputMD(BYTE dev, STRING str, BYTE max)
   237 				; see Input, size set to max
   238 A499			inmd	.proc			; PROC InputMD(BYTE dev, STRING str, BYTE max)
   239 A499 48				pha
   240 A49A 86 A1			stx	arg1
   241 A49C 84 A2			sty	arg2
   242 A49E A0 00			ldy	#0
   243 A4A0 A5 A3			lda	arg3
   244 A4A2 91 A1			sta	(arg1),y
   245 A4A4 68				pla
   246 A4A5 A4 A2			ldy	arg2
   247 A4A7				m_assert_next ind_	; falls into InputD
Macro: M_ASSERT_NEXT [Source: ACTION.DEF.asm]
Source: LIB.IO.asm
   248 					.endp
   249
   250 				; PROC InputD(BYTE dev, STRING str)
   251 				; inputs str from IOCB dev
   252 				; first byte must be set to maximum size
   253 				; on return, first byte set to size of string input
   254 A4A7			ind_	.proc			; PROC InputD(BYTE dev, STRING str)
   255 A4A7 20 B6 B0			jsr	mainio.rdbuf.inputs
   256 A4AA 4C A5 A3			jmp	chkerr
   257 					.endp
   258 				;
   259 				; BYTE FUNC GetD(BYTE dev)
   260 				; inputs character from IOCB dev
   261 A4AD			getd	.proc			; BYTE FUNC GetD(BYTE dev)
   262 A4AD A2 07			ldx	#cio_command.getchr
   263 A4AF 86 A4		ccio	stx	arg4
   264 A4B1 0A				asl
   265 A4B2 0A				asl
   266 A4B3 0A				asl
   267 A4B4 0A				asl
   268 A4B5 AA				tax
   269 A4B6 A5 A4			lda	arg4
   270 A4B8 9D 42 03			sta	iccom,x
   271 A4BB A9 00			lda	#0
   272 A4BD 9D 48 03			sta	$0348,x
   273 A4C0 9D 49 03			sta	$0349,x
   274 A4C3 98				tya
   275 A4C4 20 56 E4			jsr	ciov
   276 A4C7 85 A0			sta	args
   277 A4C9 4C A5 A3			jmp	chkerr
   278 					.endp
   279
   280 				; PROC PutE()
   281 				; output EOL do default IOCB
   282 A4CC			pute	.proc			; PROC PutE()
   283 A4CC A9 9B			lda	#eol
   284 A4CE				m_assert_next put	; falls into Put
Macro: M_ASSERT_NEXT [Source: ACTION.DEF.asm]
Source: LIB.IO.asm
   285 					.endp
   286
   287 				; PROC Put(CHAR ch)
   288 				; outputs ch to default IOCB
   289 A4CE			put	.proc			; PROC Put(CHAR ch)
   290 A4CE AA				tax
   291 A4CF A5 B7			lda	device
   292 A4D1				m_assert_next putd	; falls into PutD
Macro: M_ASSERT_NEXT [Source: ACTION.DEF.asm]
Source: LIB.IO.asm
   293 					.endp
   294
   295 				; PROC PutD(BYTE dev, CHAR ch)
   296 				; outputs ch to IOCB dev
   297 A4D1			putd	.proc			; PROC PutD(BYTE dev, CHAR ch)
   298 A4D1 86 A1			stx	arg1
   299 A4D3 A4 A1			ldy	arg1
   300 A4D5 A2 0B		putd1	ldx	#cio_command.putchr
   301 A4D7 4C AF A4			jmp	getd.ccio
   302 					.endp
   303
   304 				; PROC PutDE(BYTE dev)
   305 				; outputs EOL to IOCD dev
   306 A4DA			putde	.proc			; PROC PutDE(BYTE dev)
   307 A4DA A0 9B			ldy	#eol
   308 A4DC D0 F7			bne	putd.putd1	; Unconditional branch
   309 					.endp
   310
   311 				; PROC XIOstr(BYTE dev, fill, cmd, aux1, aux2, STRING str)
   312 				; see Hardware manual for CIO details
   313 				; performs system CIO call where:
   314 				;   ICCOM = cmd
   315 				;   ICBL = str(0)
   316 				;   ICBA = str+1
   317 				;   ICAX1 = aux1
   318 				;   ICAX2 = aux2
   319 				; CIO is not called if str(0)=0
   320 				; ICAX1 and ICAX2 are not set if aux1=0
   321 A4DE			xio	.proc			; PROC XIOstr(BYTE dev, fill, cmd, aux1, aux2, STRING str)
   322 A4DE 20 3A B0			jsr	mainio.xiostr
   323 A4E1 4C A5 A3			jmp	chkerr
   324 					.endp
   325
   326 				; PROC PrintB(BYTE num)
   327 				; outputs byte num to default IOCB
   328 A4E4			prtb	.proc			; PROC PrintB(BYTE num)
   329 A4E4 A2 00			ldx	#0
   330 A4E6				m_assert_next prtc	; falls into PrintC
Macro: M_ASSERT_NEXT [Source: ACTION.DEF.asm]
Source: LIB.IO.asm
   331 					.endp
   332
   333 				; PROC PrintC(CARD num)
   334 				; outputs cardinal num to default IOCB
   335 A4E6			prtc	.proc			; PROC PrintC(CARD num)
   336 A4E6 20 48 B1			jsr	mainio.printc
   337 A4E9 4C A5 A3			jmp	chkerr
   338 					.endp
   339
   340 				; PROC PrintBE(BYTE num)
   341 				; same as PrintB except EOL appended
   342 A4EC			prtbe	.proc			; PROC PrintBE(BYTE num)
   343 A4EC A2 00			ldx	#0
   344 A4EE				m_assert_next prtce	; falls into PrintCE
Macro: M_ASSERT_NEXT [Source: ACTION.DEF.asm]
Source: LIB.IO.asm
   345 					.endp
   346
   347 				; PROC PrintCE(CARD num)
   348 				; same as PrintC except EOL appended
   349 A4EE			prtce	.proc			; PROC PrintCE(CARD num)
   350 A4EE 20 E6 A4			jsr	prtc
   351 A4F1 4C CC A4			jmp	pute
   352 					.endp
   353
   354 				; PROC PrintBD(BYTE dev, BYTE num)
   355 				; output byte num to IOCB dev
   356 A4F4			prtbd	.proc			; PROC PrintBD(BYTE dev, BYTE num)
   357 A4F4 A0 00			ldy	#0
   358 A4F6				m_assert_next prtcd	; falls into PrintCD
Macro: M_ASSERT_NEXT [Source: ACTION.DEF.asm]
Source: LIB.IO.asm
   359 					.endp
   360
   361 				; PROC PrintCD(BYTE dev, CARD num)
   362 				; output cardinal num to IOCB dev
   363 A4F6			prtcd	.proc			; PROC PrintCD(BYTE dev, CARD num)
   364 A4F6 85 A0			sta	arg0
   365 A4F8 8A				txa
   366 A4F9 84 A2			sty	arg2
   367 A4FB A6 A2			ldx	arg2
   368 A4FD 20 0F B1			jsr	mainio.ctostr
   369 A500 A5 A0			lda	arg0
   370 A502 20 4D B1			jsr	mainio.printc.pnum+2
   371 A505 4C A5 A3			jmp	chkerr
   372 					.endp
   373
   374 				; PROC PrintBDE(BYTE dev, BYTE num)
   375 				; output num to IOCB dev with EOL
   376 A508			prtbde	.proc			; PROC PrintBDE(BYTE dev, BYTE num)
   377 A508 A0 00			ldy	#0
   378 A50A				m_assert_next prtcde	; falls into prtcde
Macro: M_ASSERT_NEXT [Source: ACTION.DEF.asm]
Source: LIB.IO.asm
   379 					.endp
   380
   381 				; PROC PrintCDE(BYTE dev, CARD num)
   382 				; output num to IOCB dev with EOL
   383 A50A			prtcde	.proc			; PROC PrintCDE(BYTE dev, CARD num)
   384 A50A 20 F6 A4			jsr	prtcd
   385 A50D A5 A0			lda	arg0
   386 A50F 4C DA A4			jmp	putde
   387 					.endp
   388 				;
   389 				; PROC PrintI(INT num)
   390 				; outputs integer num to default IOCB
   391 A512			prti	.proc			; PROC PrintI(INT num)
   392 A512 86 A2			stx	arg2
   393 A514 AA				tax
   394 A515 A4 A2			ldy	arg2
   395 A517 A5 B7			lda	device
   396 A519				m_assert_next prtid	; falls into PrintID
Macro: M_ASSERT_NEXT [Source: ACTION.DEF.asm]
Source: LIB.IO.asm
   397 					.endp
   398
   399 				; PROC PrintID(BYTE dev, INT num)
   400 				; outputs integer num to IOCB dev
   401 A519			prtid	.proc			; PROC PrintID(BYTE dev, INT num)
   402 A519 C0 00			cpy	#0
   403 A51B 10 D9			bpl	prtcd
   404 A51D 48				pha
   405 A51E 86 A1			stx	arg1
   406 A520 84 A2			sty	arg2
   407 A522 A0 2D			ldy	#'-'
   408 A524 20 D5 A4			jsr	putd.putd1
   409 A527 38				sec
   410 A528 A9 00			lda	#0
   411 A52A E5 A1			sbc	arg1
   412 A52C AA				tax
   413 A52D A9 00			lda	#0
   414 A52F E5 A2			sbc	arg2
   415 A531 A8				tay
   416 A532 68				pla
   417 A533 4C F6 A4			jmp	prtcd
   418 					.endp
   419
   420 				; PROC PrintIE(INT num)
   421 				; same as PrintI with EOL
   422 A536			prtie	.proc			; PROC PrintIE(INT num)
   423 A536 20 12 A5			jsr	prti
   424 A539 4C CC A4			jmp	pute
   425 					.endp
   426
   427 				; PROC PrintIDE(BYTE dev, INT num)
   428 				; same as PrintID with EOL
   429 A53C			prtide	.proc			; PROC PrintIDE(BYTE dev, INT num)
   430 A53C 20 19 A5			jsr	prtid
   431 A53F A5 A0			lda	arg0
   432 A541 4C DA A4			jmp	putde
   433 					.endp
   434
   435 				; PROC StrB(BYTE n, STRING s)
   436 				; convert number to string
   437 A544			strb	.proc			; PROC StrB(BYTE n, STRING s)
   438 A544 86 A2			stx	arg2
   439 A546 84 A3			sty	arg3
   440 A548 A2 00			ldx	#0
   441 A54A A4 A2			ldy	arg2
   442 A54C				m_assert_next strc	; falls into StrC
Macro: M_ASSERT_NEXT [Source: ACTION.DEF.asm]
Source: LIB.IO.asm
   443 					.endp
   444
   445 				; PROC StrC(CARD n, STRING s)
   446 				; convert number to string
   447 A54C			strc	.proc			; PROC StrC(CARD n, STRING s)
   448 A54C 84 A2			sty	arg2
   449 A54E 20 0F B1			jsr	mainio.ctostr
   450 A551 C8				iny
   451 A552 B9 50 05		??strc1 lda	numbuf,y
   452 A555 91 A2			sta	(arg2),y
   453 A557 88				dey
   454 A558 10 F8			bpl	??strc1
   455 A55A 60				rts
   456 					.endp
   457
   458 				; PROC StrI(INT n, STRING s)
   459 				; convert number to string
   460 A55B			stri	.proc		; PROC StrI(INT n, STRING s)
   461 A55B E0 00			cpx	#0
   462 A55D 10 ED			bpl	strc
   463 A55F 85 A0			sta	arg0
   464 A561 86 A1			stx	arg1
   465 A563 84 A2			sty	arg2
   466 A565 38				sec
   467 A566 A9 00			lda	#0
   468 A568 E5 A0			sbc	arg0
   469 A56A A8				tay
   470 A56B A9 00			lda	#0
   471 A56D E5 A1			sbc	arg1
   472 A56F AA				tax
   473 A570 98				tya
   474 A571 20 0F B1			jsr	mainio.ctostr
   475 A574 E8				inx
   476 A575 8A				txa
   477 A576 A8				tay
   478 A577 B9 4F 05		??s1	lda	numbuf-1,y
   479 A57A 91 A2			sta	(arg2),y
   480 A57C 88				dey
   481 A57D D0 F8			bne	??s1
   482 A57F 8A				txa
   483 A580 91 A2			sta	(arg2),y
   484 A582 C8				iny
   485 A583 A9 2D			lda	#'-'
   486 A585 91 A2			sta	(arg2),y
   487 A587 60				rts
   488 					.endp
   489
   490 				; input number from default IOCB
   491 				; number must be terminated with EOL
   492 A588			inb	.proc			;BYTE FUNC InputB()
   493 A588				m_assert_next inc_	; falls into inc_
Macro: M_ASSERT_NEXT [Source: ACTION.DEF.asm]
Source: LIB.IO.asm
   494 					.endp
   495
   496 A588			inc_	.proc			;CARD FUNC InputC()
   497 A588				m_assert_next ini_	; falls into ini_
Macro: M_ASSERT_NEXT [Source: ACTION.DEF.asm]
Source: LIB.IO.asm
   498 					.endp
   499
   500 A588			ini_	.proc			;INT FUNC InputI()
   501 A588 A5 B7			lda	device
   502 A58A				m_assert_next inbd	; falls into InputBD
Macro: M_ASSERT_NEXT [Source: ACTION.DEF.asm]
Source: LIB.IO.asm
   503 					.endp
   504
   505 				; same as InputI, but from IOCB dev
   506 A58A			inbd	.proc			;BYTE FUNC InputBD()
   507 A58A				m_assert_next incd	; falls into InputCD
Macro: M_ASSERT_NEXT [Source: ACTION.DEF.asm]
Source: LIB.IO.asm
   508 					.endp
   509
   510 A58A			incd	.proc;CARD FUNC InputCD()
   511 A58A				m_assert_next inid	; falls into InputID
Macro: M_ASSERT_NEXT [Source: ACTION.DEF.asm]
Source: LIB.IO.asm
   512 					.endp
   513
   514 A58A			inid	.proc			;INT FUNC InputID(BYTE dev)
   515 A58A A2 13			ldx	#19
   516 A58C 8E 50 05			stx	numbuf
   517 A58F A2 50			ldx	#<numbuf
   518 A591 A0 05			ldy	#>numbuf
   519 A593 20 A7 A4			jsr	ind_
   520 A596 A9 50			lda	#<numbuf
   521 A598 A2 05			ldx	#>numbuf
   522 A59A				m_assert_next valb	; falls into ValB
Macro: M_ASSERT_NEXT [Source: ACTION.DEF.asm]
Source: LIB.IO.asm
   523 					.endp
   524
   525 				; returns numeric value of s
   526 A59A			valb	.proc	; BYTE FUNC ValB(STRING s)
   527 A59A				m_assert_next vali	; flls into valc
Macro: M_ASSERT_NEXT [Source: ACTION.DEF.asm]
Source: LIB.IO.asm
   528 					.endp
   529
   530 A59A			vali	.proc			; INT FUNC ValI(STRING s)
   531 A59A				m_assert_next valc 	; falls into valc
Macro: M_ASSERT_NEXT [Source: ACTION.DEF.asm]
Source: LIB.IO.asm
   532 					.endp
   533
   534 A59A			valc	.proc			; CARD FUNC ValC(STRING s)
   535 A59A 85 A4			sta	arg4
   536 A59C 86 A5			stx	arg5
   537 A59E A0 00			ldy	#0
   538 A5A0 84 A0			sty	arg0
   539 A5A2 84 A1			sty	arg1
   540 A5A4 84 A2			sty	arg2
   541 A5A6 B1 A4			lda	(arg4),y
   542 A5A8 85 A3			sta	arg3
   543 A5AA E6 A3			inc	arg3
   544 A5AC A9 20			lda	#32
   545 A5AE C8				iny
   546 A5AF D1 A4		??i1	cmp	(arg4),y
   547 A5B1 D0 05			bne	??i2
   548 A5B3 C8				iny
   549 A5B4 C4 A3			cpy	arg3
   550 A5B6 30 F7			bmi	??i1
   551 A5B8 B1 A4		??i2	lda	(arg4),y
   552 A5BA C9 2D			cmp	#'-'
   553 A5BC D0 03			bne	??i3
   554 A5BE 85 A2			sta	arg2
   555 A5C0 C8				iny
   556 A5C1 C4 A3		??i3	cpy	arg3
   557 A5C3 10 36			bpl	??i6
   558 A5C5 B1 A4		??i4	lda	(arg4),y
   559 A5C7 C9 30			cmp	#'0'
   560 A5C9 30 30			bmi	??i6
   561 A5CB C9 3A			cmp	#':'             ; '9'+1
   562 A5CD 10 2C			bpl	??i6
   563 A5CF 38				sec
   564 A5D0 E9 30			sbc	#'0'
   565 A5D2 AA				tax
   566 				; arg01*10
   567 A5D3 A5 A1			lda	arg1
   568 A5D5 48				pha
   569 A5D6 A5 A0			lda	arg0
   570 A5D8 0A				asl
   571 A5D9 26 A1			rol	arg1
   572 A5DB 0A				asl
   573 A5DC 26 A1			rol	arg1
   574 A5DE 18				clc
   575 A5DF 65 A0			adc	arg0
   576 A5E1 85 A0			sta	arg0
   577 A5E3 68				pla
   578 A5E4 65 A1			adc	arg1
   579 A5E6 85 A1			sta	arg1
   580 A5E8 06 A0			asl	arg0
   581 A5EA 26 A1			rol	arg1
   582 A5EC 18				clc
   583 A5ED 8A				txa
   584 A5EE 65 A0			adc	arg0		; add in digit
   585 A5F0 85 A0			sta	arg0
   586 A5F2 90 02			bcc	??i5
   587 A5F4 E6 A1			inc	arg1
   588 A5F6 C8			??i5	iny
   589 A5F7 C4 A3			cpy	arg3
   590 A5F9 30 CA			bmi	??i4
   591 A5FB A5 A2		??i6	lda	arg2
   592 A5FD F0 0D			beq	??i7
   593 A5FF 38				sec
   594 A600 A9 00			lda	#0
   595 A602 E5 A0			sbc	arg0
   596 A604 85 A0			sta	arg0
   597 A606 A9 00			lda	#0
   598 A608 E5 A1			sbc	arg1
   599 A60A 85 A1			sta	arg1
   600 A60C 60			??i7	rts
   601 					.endp
   602
   603 				; PROC Note(BYTE dev, CARD POINTER sector, BYTE POINTER offset)
   604 				; returns disk sector and offset in that
   605 				; sector of next byte to be read or
   606 				; written to IOCB dev
   607 				; example:  Note(1, @sect, @pos)
   608 				; see Hardware manual
   609 A60D			note	.proc			; PROC Note(BYTE dev, CARD POINTER sector, BYTE POINTER offset)
   610 A60D 86 A1			stx	arg1
   611 A60F 84 A2			sty	arg2
   612 A611 0A				asl
   613 A612 0A				asl
   614 A613 0A				asl
   615 A614 0A				asl
   616 A615 AA				tax
   617 A616 A9 26			lda	#cio_command.note
   618 A618 9D 42 03			sta	iccom,x
   619 A61B 20 56 E4			jsr	ciov
   620 A61E 20 A5 A3			jsr	chkerr
   621 A621 A0 00			ldy	#0
   622 A623 BD 4E 03			lda	icax5,x 	; offset
   623 A626 91 A3			sta	(arg3),y
   624 A628 BD 4C 03			lda	icax3,x 	; low byte of sector
   625 A62B 91 A1			sta	(arg1),y
   626 A62D BD 4D 03			lda	icax4,x 	; high byte of sector
   627 A630 C8				iny
   628 A631 91 A1			sta	(arg1),y
   629 A633 60				rts
   630 					.endp
   631 				;
   632 				; PROC Point(BYTE dev, CARD sector, BYTE offset)
   633 				; Sets next byte to be read or written
   634 				; to be byte offset of sector.	File
   635 				; must be open for update (mode=12)
   636 				; see Hardware manual
   637 A634			point	.proc			; PROC Point(BYTE dev, CARD sector, BYTE offset)
   638 A634 86 A1			stx	arg1
   639 A636 0A				asl
   640 A637 0A				asl
   641 A638 0A				asl
   642 A639 0A				asl
   643 A63A AA				tax
   644 A63B 98				tya			; sector+1
   645 A63C 9D 4D 03			sta	icax4,x
   646 A63F A5 A1			lda	arg1		; sector
   647 A641 9D 4C 03			sta	icax3,x
   648 A644 A5 A3			lda	arg3		; offset
   649 A646 9D 4E 03			sta	icax5,x
   650 A649 A9 25			lda	#cio_command.point
   651 A64B 9D 42 03			sta	iccom,x
   652 A64E 20 56 E4			jsr	ciov
   653 A651 4C A5 A3			jmp	chkerr
   654 					.endp
   655
   656 					.endp			; end of libio
    91 A654				icl 	"lib/LIB.GR.asm"
Source: LIB.GR.asm
     1 				;
     2 				;	LIB.GR
     3 				;
     4 				; Copyright 1983 by Clinton W Parker.
     5 				; All Rights Reserved.
     6 				; Original last modified June 21, 1983.
     7 				;
     8 				; This file is part of Action!.
     9 				;
    10 				; Action! is free software: you can redistribute it and/or modify
    11 				; it under the terms of the GNU General Public License as published by
    12 				; the Free Software Foundation, either version 3 of the License, or
    13 				; (at your option) any later version.
    14 				;
    15 				; Action! is distributed in the hope that it will be useful,
    16 				; but WITHOUT ANY WARRANTY; without even the implied warranty of
    17 				; MERCHANTABILITY or FITNESS FOR A PARTICULAR PURPOSE.  See the
    18 				; GNU General Public License for more details.
    19 				;
    20 				; You should have received a copy of the GNU General Public License
    21 				; along with Action!.  If not, see <http://www.gnu.org/licenses/>.
    22 				;
    23 				; @com.wudsn.ide.asm.mainsourcefile=../ACTION.asm
    24
    25 A654				.proc libgr
    26
    27 				; .proc Graphics(BYTE mode)
    28 				; same as BASIC
    29 A654			graphics	.proc		; Graphics(mode)
    30 A654 48				pha
    31 A655 A9 00			lda	#cio_channel.zero
    32 A657 20 79 A4			jsr	libio.clos
    33 A65A A9 0C			lda	#cio_command.close
    34 A65C 85 A3			sta	arg3
    35 A65E A9 00			lda	#cio_channel.zero
    36 A660 A2 84			ldx	#<??e
    37 A662 A0 A6			ldy	#>??e
    38 A664 20 04 B0			jsr	mainio.open
    39 A667 20 A5 A3			jsr	libio.chkerr
    40 A66A A9 06			lda	#cio_channel.six
    41 A66C 20 79 A4			jsr	libio.clos
    42 A66F 68				pla
    43 A670 85 A4			sta	arg4
    44 A672 29 30			and	#$30
    45 A674 49 1C			eor	#$1c
    46 A676 85 A3			sta	arg3
    47 A678 A9 06			lda	#cio_channel.six
    48 A67A A2 88			ldx	#<??devs
    49 A67C A0 A6			ldy	#>??devs
    50 A67E 20 04 B0			jsr	mainio.open
    51 A681 4C A5 A3			jmp	libio.chkerr
    52 					.endp
    53
    54 A684			??e	m_string 'E:'
Macro: M_STRING [Source: ACTION.DEF.asm]
     1 A684 02				.byte [.len string]
     3 A685 45 3A			.byte 'E:'
Source: LIB.GR.asm
    55 A687 9B				.byte character.eol
    56 A688			??devs	m_string 'S:'
Macro: M_STRING [Source: ACTION.DEF.asm]
     1 A688 02				.byte [.len string]
     3 A689 53 3A			.byte 'S:'
Source: LIB.GR.asm
    57 A68B 9B				.byte character.eol
    58
    59 				;
    60 				; .proc DrawTo(CARD col, BYTE row)
    61 				; same as BASIC
    62 A68C			drawto	.proc
    63 A68C 20 94 A6			jsr	??grio		; DrawTo(col, row)
    64 A68F A0 11			ldy	#cio_command.drawto
    65 A691 4C DE A4			jmp	libio.xio
    66 				;
    67 A694 20 B4 A6		??grio	jsr	position.pos1
    68 A697 AD FD 02			lda	fildat
    69 A69A 8D FB 02			sta	atachr
    70 A69D A9 88			lda	#<??devs
    71 A69F 85 A5			sta	arg5
    72 A6A1 A9 A6			lda	#>??devs
    73 A6A3 85 A6			sta	arg6
    74 A6A5 A9 00			lda	#0
    75 A6A7 85 A3			sta	arg3
    76 A6A9 85 A4			sta	arg4
    77 A6AB A9 06			lda	#6
    78 A6AD 60				rts
    79 					.endp
    80 				;
    81 				; .proc Position(CARD col, BYTE row)
    82 				; same as BASIC
    83 A6AE			position	.proc
    84 A6AE 85 5B			sta	oldcol	; Position(col, row)
    85 A6B0 86 5C			stx	oldcol+1
    86 A6B2 84 5A			sty	oldrow
    87 A6B4 85 55		pos1	sta	colcrs
    88 A6B6 86 56			stx	colcrs+1
    89 A6B8 84 54			sty	rowcrs
    90 A6BA 60				rts
    91 					.endp
    92 				;
    93 				; BYTE FUNC Locate(CARD col, BYTE row)
    94 				; same as BASIC
    95 A6BB			locate	.proc
    96 A6BB 20 AE A6			jsr	position	; Locate(col, row)
    97 A6BE A9 06			lda	#cio_channel.six
    98 A6C0 4C AD A4			jmp	libio.getd
    99 					.endp
   100 				;
   101 				; .proc Plot(CARD col, BYTE row)
   102 				; same as BASIC
   103 A6C3			plot	.proc
   104 A6C3 20 B4 A6			jsr	position.pos1	; Plot(col, row)
   105 A6C6 A9 06			lda	#cio_channel.six
   106 A6C8 AE FD 02			ldx	fildat
   107 A6CB 4C D1 A4			jmp	libio.putd
   108 					.endp
   109 				;
   110 				; .proc SetColor(BYTE reg, hue, lum)
   111 				; same as BASIC
   112 A6CE			setcolor	.proc
   113 A6CE C9 05			cmp	#5	; SetColor(reg, hue, lum)
   114 A6D0 10 16			bpl	??sc1
   115 A6D2 85 A0			sta	arg0
   116 A6D4 98				tya
   117 A6D5 29 0F			and	#$0f
   118 A6D7 85 A2			sta	arg2
   119 A6D9 8A				txa
   120 A6DA 0A				asl
   121 A6DB 0A				asl
   122 A6DC 0A				asl
   123 A6DD 0A				asl
   124 A6DE 05 A2			ora	arg2
   125 A6E0 A6 A0			ldx	arg0
   126 A6E2 9D C4 02			sta	color0,x
   127 A6E5 9D 16 D0			sta	colpf0,x
   128 A6E8 60			??sc1	rts
   129 					.endp
   130 				;
   131 				; .proc Fill(CARD col, BYTE row)
   132 				; same as:
   133 				;   POSITION col, row
   134 				;   POKE 765, color
   135 				;   XIO 18,#6,0,0,'S:'
   136 				; in BASIC
   137 A6E9			fill	.proc
   138 A6E9 20 94 A6			jsr	drawto.??grio
   139 A6EC A0 12			ldy	#cio_command.fill
   140 A6EE 4C DE A4			jmp	libio.xio
   141 					.endp
   142
   143 					.endp			; end of libgr
    92 A6F1				icl 	"lib/LIB.MSC.asm"
Source: LIB.MSC.asm
     1 				;
     2 				;	LIB.MSC
     3 				;
     4 				; Copyright 1983 by Clinton W Parker.
     5 				; All Rights Reserved.
     6 				; Original last modified November 3, 1983.
     7 				;
     8 				; This file is part of Action!.
     9 				;
    10 				; Action! is free software: you can redistribute it and/or modify
    11 				; it under the terms of the GNU General Public License as published by
    12 				; the Free Software Foundation, either version 3 of the License, or
    13 				; (at your option) any later version.
    14 				;
    15 				; Action! is distributed in the hope that it will be useful,
    16 				; but WITHOUT ANY WARRANTY; without even the implied warranty of
    17 				; MERCHANTABILITY or FITNESS FOR A PARTICULAR PURPOSE.  See the
    18 				; GNU General Public License for more details.
    19 				;
    20 				; You should have received a copy of the GNU General Public License
    21 				; along with Action!.  If not, see <http://www.gnu.org/licenses/>.
    22 				;
    23 				; @com.wudsn.ide.asm.mainsourcefile=../ACTION.asm
    24
    25 A6F1				.proc libmisc
    26 				;
    27 				;
    28 				; BYTE FUNC Rand(BYTE range)
    29 				; returns random number between 0 and
    30 				; range-1.  If range=0, then a random
    31 				; number between 0 and 255 is returned
    32 A6F1			rand	.proc			; BYTE FUNC Rand(BYTE range)
    33 A6F1 AE 0A D2			ldx	$d20a		; RANDOM
    34 A6F4 C9 00			cmp	#0
    35 A6F6 F0 09			beq	??rand1
    36 A6F8 86 84			stx	afcur
    37 A6FA A2 00			ldx	#0
    38 A6FC 86 85			stx	afcur+1
    39 A6FE 20 00 A0			jsr	libmath.multi
    40 A701 86 A0		??rand1 stx	args
    41 A703 60				rts
    42 					.endp
    43
    44 				; PROC Sound(BYTE v, p, d, vol)
    45 				; set voice to specified pitch, distortion,
    46 				; and volume.  Assumes volume low  16.
    47 A704			sound	.proc			; PROC Sound(BYTE v, p, d, vol)
    48 A704 0A				asl
    49 A705 84 A2			sty	arg2
    50 A707 A8				tay
    51 A708 C9 07			cmp	#7
    52 A70A 30 05			bmi	??snd1
    53 A70C A0 64			ldy	#100
    54 A70E 20 CB 04			jsr	error
    55 A711 8A			??snd1	txa
    56 A712 99 00 D2			sta	$d200,y
    57 A715 A5 A2			lda	arg2
    58 A717 0A				asl
    59 A718 0A				asl
    60 A719 0A				asl
    61 A71A 0A				asl
    62 A71B 05 A3			ora	arg3
    63 A71D 99 01 D2			sta	$d201,y
    64 A720 60				rts
    65 					.endp
    66
    67 				; PROC SndRst()
    68 				; reset sound channels
    69 A721			sndrst	.proc			; PROC SndRst()
    70 A721 AD 32 02			lda	sskctl
    71 A724 29 EF			and	#$ef		; turn off two tone bit
    72 A726 8D 32 02			sta	sskctl
    73 A729 8D 0F D2			sta	skctl
    74 A72C A9 00			lda	#0
    75 A72E A2 08			ldx	#8
    76 A730 9D 00 D2		??sr1	sta	audf0,x 	; zero sound regs
    77 A733 CA				dex
    78 A734 10 FA			bpl	??sr1
    79 A736 60				rts
    80 					.endp
    81 				;
    82 				;BYTE FUNC Paddle(BYTE port)
    83 				; returns paddle value of port
    84 				; Assumes port low  8.
    85 				; see LIB.ST
    86 				;Paddle TAX
    87 				; LDA $D200,X
    88 				; STA args
    89 				; RTS
    90 				;
    91 				; BYTE FUNC PTrig(BYTE port)
    92 				; returns zero if trigger of paddle
    93 				; port is depressed.  Assumes port<8
    94 A737			ptrig	.proc		; BYTE FUNC PTrig(BYTE port)
    95 A737 A2 00			ldx	#0
    96 A739 C9 04			cmp	#4
    97 A73B 30 03			bmi	??pt1
    98 A73D E8				inx
    99 A73E 29 03			and	#3
   100 A740 A8			??pt1	tay
   101 A741 BD 00 D3			lda	porta,x
   102 A744 39 4A A7			and	??pt2,y
   103 A747 85 A0			sta	args
   104 A749 60				rts
   105 				;
   106 A74A 04 08 40 80		??pt2	.byte	$04,$08,$40,$80
   107 					.endp
   108 				;
   109 				; BYTE FUNC Stick(BYTE port)
   110 				; returns current value of joystick
   111 				; controller port.  Assumes port<4
   112 A74E			stick	.proc		; BYTE FUNC Stick(BYTE port)
   113 A74E A2 00			ldx	#0
   114 A750 C9 02			cmp	#2
   115 A752 30 03			bmi	??stk1
   116 A754 E8				inx
   117 A755 29 01			and	#1
   118 A757 A8			??stk1	tay
   119 A758 BD 00 D3			lda	porta,x
   120 A75B 88				dey
   121 A75C D0 04			bne	??stk2
   122 A75E 4A				lsr
   123 A75F 4A				lsr
   124 A760 4A				lsr
   125 A761 4A				lsr
   126 A762 29 0F		??stk2	and	#$0f
   127 A764 85 A0			sta	args
   128 A766 60				rts
   129 					.endp
   130 				;
   131 				;BYTE FUNC STrig(BYTE port)
   132 				; returns zero if trigger of joystick
   133 				; port is depressed.  Assumes port<4
   134 				;
   135 				; see LIB.ST
   136 				;STrig TAX
   137 				; LDA $D010,X
   138 				; STA args
   139 				; RTS
   140 				;
   141 				; BYTE FUNC Peek(CARD address)
   142 				; returns value stored at address
   143 A767			peek	.proc			;BYTE FUNC Peek(CARD address)
   144 A767				m_assert_next peekc	; falls into PeekC
Macro: M_ASSERT_NEXT [Source: ACTION.DEF.asm]
Source: LIB.MSC.asm
   145 					.endp
   146
   147 				;CARD FUNC PeekC(CARD address)
   148 				; returns value stored at address
   149 A767			peekc	.proc			;CARD FUNC PeekC(CARD address)
   150 A767 85 A2			sta	arg2
   151 A769 86 A3			stx	arg3
   152 A76B A0 00			ldy	#0
   153 A76D B1 A2			lda	(arg2),y
   154 A76F 85 A0			sta	args
   155 A771 C8				iny
   156 A772 B1 A2			lda	(arg2),y
   157 A774 85 A1			sta	args+1
   158 A776 60				rts
   159 					.endp
   160
   161 				; PROC Poke(CARD address, BYTE value)
   162 				; store byte or char value at address
   163 				; (single byte store)
   164 A777			poke	.proc			; PROC Poke(CARD address, BYTE value)
   165 A777 85 A0			sta	arg0
   166 A779 86 A1			stx	arg1
   167 A77B 98				tya
   168 A77C A0 00			ldy	#0
   169 A77E 91 A0			sta	(arg0),y
   170 A780 60				rts
   171 					.endp
   172
   173 				; PROC PokeC(CARD address, value)
   174 				; store cardinal or integer value at
   175 				; address (2 byte store)
   176 A781			pokec	.proc			; PROC PokeC(CARD address, value)
   177 A781 20 77 A7			jsr	poke
   178 A784 C8				iny
   179 A785 A5 A3			lda	arg3
   180 A787 91 A0			sta	(arg0),y
   181 A789 60				rts
   182 					.endp
   183 				;
   184 				; PROC Zero(BYTE POINTER address, CARD size)
   185 				; set memory bytes starting at address
   186 				; up to (but not including) address+size
   187 				; to zero.  Note this modifies size
   188 				; bytes of memory.
   189 A78A			mzero	.proc			; PROC Zero(BYTE POINTER address, CARD size)
   190 A78A 48				pha
   191 A78B A9 00			lda	#0
   192 A78D 85 A4			sta	arg4
   193 A78F 68				pla
   194 A790				m_assert_next setblock	; falls into SetBlock
Macro: M_ASSERT_NEXT [Source: ACTION.DEF.asm]
Source: LIB.MSC.asm
   195 					.endp
   196
   197 				; PROC SetBlock(BYTE POINTER address, CARD size, BYTE value)
   198 				; set memory bytes starting at address
   199 				; up to (but not including) address+size
   200 				; to value.  Note this modifies size
   201 				; bytes of memory.
   202 A790			setblock	.proc		; PROC SetBlock(BYTE POINTER address, CARD size, BYTE value)
   203 A790 85 A0			sta	arg0
   204 A792 86 A1			stx	arg1
   205 A794 84 A2			sty	arg2
   206 A796 A0 00			ldy	#0
   207 A798 A5 A4			lda	arg4
   208 A79A A6 A3			ldx	arg3
   209 A79C F0 10			beq	??sb3
   210 A79E 91 A0		??sb1	sta	(arg0),y
   211 A7A0 C8				iny
   212 A7A1 D0 FB			bne	??sb1
   213 A7A3 E6 A1			inc	arg1
   214 A7A5 C6 A3			dec	arg3
   215 A7A7 D0 F5			bne	??sb1
   216 A7A9 F0 03			beq	??sb3
   217 A7AB 91 A0		??sb2	sta	(arg0),y
   218 A7AD C8				iny
   219 A7AE C4 A2		??sb3	cpy	arg2
   220 A7B0 D0 F9			bne	??sb2
   221 A7B2 60				rts
   222 					.endp
   223
   224 				; PROC MoveBlock(BYTE POINTER dest, src, CARD size)
   225 				; moves size bytes from src through
   226 				; src+size-1 to dest through dest+size-1.
   227 				; If dest>src and dest<=src+size-1 then
   228 				; transfer will not work properly!
   229 A7B3			moveblock	.proc		; PROC MoveBlock(BYTE POINTER dest, src, CARD size)
   230 A7B3 85 A0			sta	arg0
   231 A7B5 86 A1			stx	arg1
   232 A7B7 84 A2			sty	arg2
   233 A7B9 A0 00			ldy	#0
   234 A7BB A5 A5			lda	arg5
   235 A7BD F0 16			beq	??mb4
   236 A7BF B1 A2		??mb2	lda	(arg2),y
   237 A7C1 91 A0			sta	(arg0),y
   238 A7C3 C8				iny
   239 A7C4 D0 F9			bne	??mb2
   240 A7C6 E6 A1			inc	arg1
   241 A7C8 E6 A3			inc	arg3
   242 A7CA C6 A5			dec	arg5
   243 A7CC D0 F1			bne	??mb2
   244 A7CE F0 05			beq	??mb4
   245 A7D0 B1 A2		??mb3	lda	(arg2),y
   246 A7D2 91 A0			sta	(arg0),y
   247 A7D4 C8				iny
   248 A7D5 C4 A4		??mb4	cpy	arg4
   249 A7D7 D0 F7			bne	??mb3
   250 A7D9 60				rts
   251 					.endp
   252
   253 				; PROC Break()
   254 				; returns to monitor after saving
   255 				; stack pointer in procSP
   256 A7DA			break	.proc			; PROC Break()
   257 A7DA BA				tsx
   258 A7DB 8E C1 04			stx	vars.procsp
   259 A7DE A0 80			ldy	#errors.brker
   260 A7E0 98				tya
   261 A7E1 4C CB 04			jmp	error
   262 					.endp
   263
   264 A7E4			ctrace	.proc			; Call Trace handler
   265 				; name passed following JSR
   266 A7E4 18				clc
   267 A7E5 68				pla
   268 A7E6 69 01			adc	#1
   269 A7E8 85 AA			sta	arg10
   270 A7EA 68				pla
   271 A7EB 69 00			adc	#0
   272 A7ED 85 AB			sta	arg11
   273 				; address of name now in arg10-11
   274 				; ok, let's print the name
   275 A7EF A5 AA			lda	arg10
   276 A7F1 A6 AB			ldx	arg11
   277 A7F3 20 7F A4			jsr	libio.prt
   278 A7F6 A9 28			lda	#'('
   279 A7F8 20 CE A4			jsr	libio.put
   280 				; now get addr of args
   281 A7FB 38				sec
   282 A7FC A5 AA			lda	arg10
   283 A7FE A0 00			ldy	#0
   284 A800 84 AF			sty	arg15
   285 A802 71 AA			adc	(arg10),y
   286 A804 85 AA			sta	arg10
   287 A806 90 02			bcc	??ct1
   288 A808 E6 AB			inc	arg11
   289 A80A B1 AA		??ct1	lda	(arg10),y
   290 A80C 85 AC			sta	arg12
   291 A80E C8				iny
   292 A80F B1 AA			lda	(arg10),y
   293 A811 85 AD			sta	arg13
   294 				; get number of args
   295 A813 C8				iny
   296 A814 B1 AA			lda	(arg10),y
   297 A816 85 A9			sta	arg9
   298 A818 84 AE			sty	arg14
   299 A81A F0 33			beq	??ct7		; no args
   300 A81C E6 AE		??ct2	inc	arg14
   301 A81E A4 AE			ldy	arg14
   302 A820 B1 AA			lda	(arg10),y
   303 A822 30 14			bmi	??ct4		; byte
   304 A824 C9 04			cmp	#types.cardt
   305 A826 E6 AF			inc	arg15
   306 A828 A4 AF			ldy	arg15
   307 A82A B1 AC			lda	(arg12),y
   308 A82C AA				tax
   309 A82D 88				dey
   310 A82E B0 0C			bcs	??ct5		; cardinal
   311 				; integer
   312 A830 B1 AC			lda	(arg12),y
   313 A832 20 12 A5			jsr	libio.prti
   314 A835 4C 41 A8			jmp	??ct6
   315 A838 A2 00		??ct4	ldx	#0
   316 A83A A4 AF			ldy	arg15
   317 A83C B1 AC		??ct5	lda	(arg12),y
   318 A83E 20 E6 A4			jsr	libio.prtc
   319 A841 E6 AF		??ct6	inc	arg15
   320 A843 C6 A9			dec	arg9
   321 A845 F0 08			beq	??ct7		; all done
   322 A847 A9 2C			lda	#character.comma
   323 A849 20 CE A4			jsr	libio.put
   324 A84C 4C 1C A8			jmp	??ct2
   325 				; setup return
   326 A84F 18			??ct7	clc
   327 A850 A5 AA			lda	arg10
   328 A852 65 AE			adc	arg14
   329 A854 AA				tax
   330 A855 A5 AB			lda	arg11
   331 A857 69 00			adc	#0
   332 A859 48				pha
   333 A85A 8A				txa
   334 A85B 48				pha
   335 A85C A9 29			lda	#')'
   336 A85E 20 CE A4			jsr	libio.put
   337 A861 4C CC A4			jmp	libio.pute
   338 					.endp
   339
   340 					.endp			; end of libmisc
    93 A864				icl 	"lib/LIB.STR.asm"
Source: LIB.STR.asm
     1 				;
     2 				;	LIB.STR
     3 				;
     4 				; Copyright 1983 by Clinton W Parker.
     5 				; All Rights Reserved.
     6 				; Original last modified November 3, 1983.
     7 				;
     8 				; This file is part of Action!.
     9 				;
    10 				; Action! is free software: you can redistribute it and/or modify
    11 				; it under the terms of the GNU General Public License as published by
    12 				; the Free Software Foundation, either version 3 of the License, or
    13 				; (at your option) any later version.
    14 				;
    15 				; Action! is distributed in the hope that it will be useful,
    16 				; but WITHOUT ANY WARRANTY; without even the implied warranty of
    17 				; MERCHANTABILITY or FITNESS FOR A PARTICULAR PURPOSE.  See the
    18 				; GNU General Public License for more details.
    19 				;
    20 				; You should have received a copy of the GNU General Public License
    21 				; along with Action!.  If not, see <http://www.gnu.org/licenses/>.
    22 				;
    23 				; @com.wudsn.ide.asm.mainsourcefile=../ACTION.asm
    24
    25 A864				.proc libstr
    26 				;
    27 				;INT FUNC SCompare(STRING a,b)
    28 				; result returned is:
    29 				;   =0 if a=b
    30 				;   low 0 if a<b
    31 				;   high 0 if a>b
    32 A864			scompare	.proc
    33 A864 85 A4			sta	arg4
    34 A866 86 A5			stx	arg5
    35 A868 84 A2			sty	arg2
    36 A86A A0 00			ldy	#0
    37 A86C 84 A0			sty	args
    38 A86E 84 A1			sty	args+1
    39 A870 B1 A4			lda	(arg4),y
    40 A872 D1 A2			cmp	(arg2),y
    41 A874 F0 03			beq	??sc1
    42 A876 20 8C A8			jsr	??sc4
    43 A879 C9 00		??sc1	cmp	#0
    44 A87B D0 01			bne	??sc2
    45 A87D 60				rts
    46 				;
    47 A87E 85 A6		??sc2	sta	arg6
    48 A880 C8			??sc3	iny
    49 A881 B1 A4			lda	(arg4),y
    50 A883 D1 A2			cmp	(arg2),y
    51 A885 D0 05			bne	??sc4
    52 A887 C4 A6			cpy	arg6
    53 A889 90 F5			bcc	??sc3
    54 A88B 60				rts
    55 				;
    56 A88C A2 FF		??sc4	ldx	#$ff
    57 A88E 86 A0			stx	args
    58 A890 90 03			bcc	??sc5
    59 A892 B1 A2			lda	(arg2),y
    60 A894 E8				inx
    61 A895 86 A1		??sc5	stx	args+1
    62 A897 60				rts
    63 					.endp
    64 				;
    65 				; PROC SCopy(STRING dest, src)
    66 				; dest = src
    67 A898			scopy	.proc
    68 A898 85 A0			sta	arg0
    69 A89A 86 A1			stx	arg1
    70 A89C 84 A2			sty	arg2
    71 A89E A0 00			ldy	#0
    72 A8A0 B1 A2			lda	(arg2),y
    73 A8A2 91 A0		scopy1	sta	(arg0),y
    74 A8A4 F0 08			beq	??scp2
    75 A8A6 A8			scopy2	tay
    76 A8A7 B1 A2		??scp1	lda	(arg2),y
    77 A8A9 91 A0			sta	(arg0),y
    78 A8AB 88				dey
    79 A8AC D0 F9			bne	??scp1
    80 A8AE 60			??scp2	rts
    81 					.endp
    82 				;
    83 				; PROC SCopyS(STRING dest, src, BYTE start, stop)
    84 				; if LEN(src)<stop then stop=LEN(src)
    85 				; dest = src(start, stop)
    86 A8AF			scopys	.proc
    87 A8AF 85 A0			sta	arg0
    88 A8B1 86 A1			stx	arg1
    89 A8B3 84 A2			sty	arg2
    90 A8B5 A0 00			ldy	#0
    91 A8B7 B1 A2			lda	(arg2),y
    92 A8B9 C5 A5			cmp	arg5
    93 A8BB B0 02			bcs	??scs1
    94 A8BD 85 A5			sta	arg5
    95 A8BF C6 A4		??scs1	dec	arg4
    96 A8C1 18				clc
    97 A8C2 A5 A2			lda	arg2
    98 A8C4 65 A4			adc	arg4
    99 A8C6 85 A2			sta	arg2
   100 A8C8 90 02			bcc	??scs2
   101 A8CA E6 A3			inc	arg3
   102 A8CC 38			??scs2	sec
   103 A8CD A5 A5			lda	arg5
   104 A8CF E5 A4			sbc	arg4
   105 A8D1 B0 02			bcs	??scs3
   106 A8D3 A9 00			lda	#0
   107 A8D5 4C A2 A8		??scs3	jmp	scopy.scopy1
   108 					.endp
   109 				;
   110 				; PROC SAssign(STRING dest, src, BYTE start, stop)
   111 				; IF stop-start+1>LEN(src) THEN
   112 				;   stop = LEN(src)+start-1
   113 				; IF LEN(dest)<stop THEN
   114 				;   LEN(dest) = stop
   115 				; dest(start, stop) = src
   116 A8D8			sassign .proc
   117 A8D8 85 A0			sta	arg0
   118 A8DA 86 A1			stx	arg1
   119 A8DC 84 A2			sty	arg2
   120 A8DE A0 00			ldy	#0
   121 A8E0 B1 A2			lda	(arg2),y
   122 A8E2 F0 0D			beq	??sa1
   123 A8E4 85 A6			sta	arg6
   124 A8E6 C6 A4			dec	arg4
   125 A8E8 38				sec
   126 A8E9 A5 A5			lda	arg5
   127 A8EB E5 A4			sbc	arg4
   128 A8ED F0 02			beq	??sa1
   129 A8EF B0 01			bcs	??sa2
   130 A8F1 60			??sa1	rts
   131 A8F2 AA			??sa2	tax
   132 A8F3 C5 A6			cmp	arg6
   133 A8F5 90 08			bcc	??sa3
   134 A8F7 18				clc
   135 A8F8 A5 A6			lda	arg6
   136 A8FA AA				tax
   137 A8FB 65 A4			adc	arg4
   138 A8FD 85 A5			sta	arg5
   139 A8FF A5 A5		??sa3	lda	arg5
   140 A901 D1 A0			cmp	(arg0),y
   141 A903 90 03			bcc	??sa4
   142 A905 91 A0			sta	(arg0),y
   143 A907 18				clc
   144 A908 A5 A0		??sa4	lda	arg0
   145 A90A 65 A4			adc	arg4
   146 A90C 85 A0			sta	arg0
   147 A90E 90 02			bcc	??sa5
   148 A910 E6 A1			inc	arg1
   149 A912 8A			??sa5	txa
   150 A913 4C A6 A8			jmp	scopy.scopy2
   151 					.endp
   152
   153 					.endp	; end of libstr
    94 A916				icl	"lib/LIB.STM.asm"
Source: LIB.STM.asm
     1 				;
     2 				;	LIB.STM
     3 				;
     4 				; Copyright 1983 by Clinton W Parker.
     5 				; All Rights Reserved.
     6 				; Original last modified November 3, 1983.
     7 				;
     8 				; This file is part of Action!.
     9 				;
    10 				; Action! is free software: you can redistribute it and/or modify
    11 				; it under the terms of the GNU General Public License as published by
    12 				; the Free Software Foundation, either version 3 of the License, or
    13 				; (at your option) any later version.
    14 				;
    15 				; Action! is distributed in the hope that it will be useful,
    16 				; but WITHOUT ANY WARRANTY; without even the implied warranty of
    17 				; MERCHANTABILITY or FITNESS FOR A PARTICULAR PURPOSE.  See the
    18 				; GNU General Public License for more details.
    19 				;
    20 				; You should have received a copy of the GNU General Public License
    21 				; along with Action!.  If not, see <http://www.gnu.org/licenses/>.
    22 				;
    23 				; @com.wudsn.ide.asm.mainsourcefile=../ACTION.asm
    24
    25 					
    26 A916				.local statement_definitions
    27
    28 				;??en6	m_statement 'PrintF',200,  PrtF ; #117
    29 				;	.byte	6,17,12,12,12,12,12
    30 A916			??en7	m_statement 'Open', 200, libio.opn	; #96
Macro: M_STATEMENT [Source: ACTION.DEF.asm]
     1 A916 04				.byte [.len string]
     3 A917 4F 70 65 6E			.byte 'Open'
     2 A91B C8				.byte 200
     3 A91C 44 A4			.word LIBIO.OPN
Source: LIB.STM.asm
    31 A91E 04 8A 11 8A 8A		.byte	4,138,17,138,138
    32 A923			??en8	m_statement 'PrintE',200, libio.prte	; #116
Macro: M_STATEMENT [Source: ACTION.DEF.asm]
     1 A923 06				.byte [.len string]
     3 A924 50 72 69 6E 74 45		.byte 'PrintE'
     2 A92A C8				.byte 200
     3 A92B 6C A4			.word LIBIO.PRTE
Source: LIB.STM.asm
    33 A92D 01 11			.byte	1,17
    34 A92F			??en9	m_statement 'PrintDE',200, libio.prtde	; #75
Macro: M_STATEMENT [Source: ACTION.DEF.asm]
     1 A92F 07				.byte [.len string]
     3 A930 50 72 69 6E 74 44 + 	.byte 'PrintDE'
     2 A937 C8				.byte 200
     3 A938 73 A4			.word LIBIO.PRTDE
Source: LIB.STM.asm
    35 A93A 02 8A 11			.byte	2,138,17
    36 A93D			??en10	m_statement 'Close',200, libio.clos	; #253
Macro: M_STATEMENT [Source: ACTION.DEF.asm]
     1 A93D 05				.byte [.len string]
     3 A93E 43 6C 6F 73 65		.byte 'Close'
     2 A943 C8				.byte 200
     3 A944 79 A4			.word LIBIO.CLOS
Source: LIB.STM.asm
    37 A946 01 8A			.byte	1,138
    38 A948			??en11	m_statement 'Print',200,  libio.prt	; #135
Macro: M_STATEMENT [Source: ACTION.DEF.asm]
     1 A948 05				.byte [.len string]
     3 A949 50 72 69 6E 74		.byte 'Print'
     2 A94E C8				.byte 200
     3 A94F 7F A4			.word LIBIO.PRT
Source: LIB.STM.asm
    39 A951 01 11			.byte	1,17
    40 A953			??en12	m_statement 'PrintD',200, libio.prtd	; #115
Macro: M_STATEMENT [Source: ACTION.DEF.asm]
     1 A953 06				.byte [.len string]
     3 A954 50 72 69 6E 74 44		.byte 'PrintD'
     2 A95A C8				.byte 200
     3 A95B 86 A4			.word LIBIO.PRTD
Source: LIB.STM.asm
    41 A95D 02 8A 11			.byte	2,138,17
    42 A960			??en13	m_statement 'InputS',200, libio.ins_	; #249
Macro: M_STATEMENT [Source: ACTION.DEF.asm]
     1 A960 06				.byte [.len string]
     3 A961 49 6E 70 75 74 53		.byte 'InputS'
     2 A967 C8				.byte 200
     3 A968 8C A4			.word LIBIO.INS_
Source: LIB.STM.asm
    43 A96A 01 11			.byte	1,17
    44 A96C			??en14	m_statement 'InputSD',200, libio.insd	; #87
Macro: M_STATEMENT [Source: ACTION.DEF.asm]
     1 A96C 07				.byte [.len string]
     3 A96D 49 6E 70 75 74 53 + 	.byte 'InputSD'
     2 A974 C8				.byte 200
     3 A975 93 A4			.word LIBIO.INSD
Source: LIB.STM.asm
    45 A977 02 8A 11			.byte	2,138,17
    46 A97A			??en15	m_statement 'InputMD',200, libio.inmd	; #75
Macro: M_STATEMENT [Source: ACTION.DEF.asm]
     1 A97A 07				.byte [.len string]
     3 A97B 49 6E 70 75 74 4D + 	.byte 'InputMD'
     2 A982 C8				.byte 200
     3 A983 99 A4			.word LIBIO.INMD
Source: LIB.STM.asm
    47 A985 03 8A 11 8A			.byte	3,138,17,138
    48 A989			??en16	m_statement 'GetD',202, libio.getd	; #138
Macro: M_STATEMENT [Source: ACTION.DEF.asm]
     1 A989 04				.byte [.len string]
     3 A98A 47 65 74 44			.byte 'GetD'
     2 A98E CA				.byte 202
     3 A98F AD A4			.word LIBIO.GETD
Source: LIB.STM.asm
    49 A991 01 8A			.byte	1,138
    50 A993			??en17	m_statement 'PutE',200,	libio.pute	; #162
Macro: M_STATEMENT [Source: ACTION.DEF.asm]
     1 A993 04				.byte [.len string]
     3 A994 50 75 74 45			.byte 'PutE'
     2 A998 C8				.byte 200
     3 A999 CC A4			.word LIBIO.PUTE
Source: LIB.STM.asm
    51 A99B 00				.byte	0
    52 A99C			??en18	m_statement 'Put',200, libio.put	; #158
Macro: M_STATEMENT [Source: ACTION.DEF.asm]
     1 A99C 03				.byte [.len string]
     3 A99D 50 75 74			.byte 'Put'
     2 A9A0 C8				.byte 200
     3 A9A1 CE A4			.word LIBIO.PUT
Source: LIB.STM.asm
    53 A9A3 01 89			.byte	1,137
    54 A9A5			??en19	m_statement 'PutD',200, libio.putd	; #161
Macro: M_STATEMENT [Source: ACTION.DEF.asm]
     1 A9A5 04				.byte [.len string]
     3 A9A6 50 75 74 44			.byte 'PutD'
     2 A9AA C8				.byte 200
     3 A9AB D1 A4			.word LIBIO.PUTD
Source: LIB.STM.asm
    55 A9AD 02 8A 89			.byte	2,138,137
    56 A9B0			??en20	m_statement 'PutDE',200, libio.putde	; #168
Macro: M_STATEMENT [Source: ACTION.DEF.asm]
     1 A9B0 05				.byte [.len string]
     3 A9B1 50 75 74 44 45		.byte 'PutDE'
     2 A9B6 C8				.byte 200
     3 A9B7 DA A4			.word LIBIO.PUTDE
Source: LIB.STM.asm
    57 A9B9 01 8A			.byte	1,138
    58 A9BB			??en21	m_statement 'XIO',200, libio.xio	; #225
Macro: M_STATEMENT [Source: ACTION.DEF.asm]
     1 A9BB 03				.byte [.len string]
     3 A9BC 58 49 4F			.byte 'XIO'
     2 A9BF C8				.byte 200
     3 A9C0 DE A4			.word LIBIO.XIO
Source: LIB.STM.asm
    59 A9C2 06 8A 8A 8A 8A 8A + 	.byte	6,138,138,138,138,138,17
    60 A9C9			??en22	m_statement 'PrintB',200, libio.prtb	; #113
Macro: M_STATEMENT [Source: ACTION.DEF.asm]
     1 A9C9 06				.byte [.len string]
     3 A9CA 50 72 69 6E 74 42		.byte 'PrintB'
     2 A9D0 C8				.byte 200
     3 A9D1 E4 A4			.word LIBIO.PRTB
Source: LIB.STM.asm
    61 A9D3 01 8A			.byte	1,138
    62 A9D5			??en23	m_statement 'PrintBE',200, libio.prtbe	; #71
Macro: M_STATEMENT [Source: ACTION.DEF.asm]
     1 A9D5 07				.byte [.len string]
     3 A9D6 50 72 69 6E 74 42 + 	.byte 'PrintBE'
     2 A9DD C8				.byte 200
     3 A9DE EC A4			.word LIBIO.PRTBE
Source: LIB.STM.asm
    63 A9E0 01 8A			.byte	1,138
    64 				;??en24	m_statement 'PrintBD',200, PrtBD 	; #70
    65 				;	.byte	2,138,138
    66 A9E2			??en25	m_statement 'PrintBDE',200, libio.prtbde; #241
Macro: M_STATEMENT [Source: ACTION.DEF.asm]
     1 A9E2 08				.byte [.len string]
     3 A9E3 50 72 69 6E 74 42 + 	.byte 'PrintBDE'
     2 A9EB C8				.byte 200
     3 A9EC 08 A5			.word LIBIO.PRTBDE
Source: LIB.STM.asm
    67 A9EE 02 8A 8A			.byte	2,138,138
    68 A9F1			??en26	m_statement 'PrintC',200, libio.prtc	; #114
Macro: M_STATEMENT [Source: ACTION.DEF.asm]
     1 A9F1 06				.byte [.len string]
     3 A9F2 50 72 69 6E 74 43		.byte 'PrintC'
     2 A9F8 C8				.byte 200
     3 A9F9 E6 A4			.word LIBIO.PRTC
Source: LIB.STM.asm
    69 A9FB 01 0C			.byte	1,12
    70 A9FD			??en27	m_statement 'PrintCE',200, libio.prtce	; #73
Macro: M_STATEMENT [Source: ACTION.DEF.asm]
     1 A9FD 07				.byte [.len string]
     3 A9FE 50 72 69 6E 74 43 + 	.byte 'PrintCE'
     2 AA05 C8				.byte 200
     3 AA06 EE A4			.word LIBIO.PRTCE
Source: LIB.STM.asm
    71 AA08 01 0C			.byte	1,12
    72 AA0A			??en28	m_statement 'PrintCD',200, libio.prtcd	; #72
Macro: M_STATEMENT [Source: ACTION.DEF.asm]
     1 AA0A 07				.byte [.len string]
     3 AA0B 50 72 69 6E 74 43 + 	.byte 'PrintCD'
     2 AA12 C8				.byte 200
     3 AA13 F6 A4			.word LIBIO.PRTCD
Source: LIB.STM.asm
    73 AA15 02 8A 0C			.byte	2,138,12
    74 AA18			??en29	m_statement 'PrintCDE',200, libio.prtcde; #245
Macro: M_STATEMENT [Source: ACTION.DEF.asm]
     1 AA18 08				.byte [.len string]
     3 AA19 50 72 69 6E 74 43 + 	.byte 'PrintCDE'
     2 AA21 C8				.byte 200
     3 AA22 0A A5			.word LIBIO.PRTCDE
Source: LIB.STM.asm
    75 AA24 02 8A 0C			.byte	2,138,12
    76 AA27			??en30	m_statement 'PrintI',200, libio.prti	; #120
Macro: M_STATEMENT [Source: ACTION.DEF.asm]
     1 AA27 06				.byte [.len string]
     3 AA28 50 72 69 6E 74 49		.byte 'PrintI'
     2 AA2E C8				.byte 200
     3 AA2F 12 A5			.word LIBIO.PRTI
Source: LIB.STM.asm
    77 AA31 01 0B			.byte	1,11
    78 AA33			??en31	m_statement 'PrintID',200, libio.prtid	; #84
Macro: M_STATEMENT [Source: ACTION.DEF.asm]
     1 AA33 07				.byte [.len string]
     3 AA34 50 72 69 6E 74 49 + 	.byte 'PrintID'
     2 AA3B C8				.byte 200
     3 AA3C 19 A5			.word LIBIO.PRTID
Source: LIB.STM.asm
    79 AA3E 02 8A 0B			.byte	2,138,11
    80 AA41			??en32	m_statement 'PrintIE',200, libio.prtie	; #85
Macro: M_STATEMENT [Source: ACTION.DEF.asm]
     1 AA41 07				.byte [.len string]
     3 AA42 50 72 69 6E 74 49 + 	.byte 'PrintIE'
     2 AA49 C8				.byte 200
     3 AA4A 36 A5			.word LIBIO.PRTIE
Source: LIB.STM.asm
    81 AA4C 01 0B			.byte	1,11
    82 AA4E			??en33	m_statement 'PrintIDE',200, libio.prtide; #13
Macro: M_STATEMENT [Source: ACTION.DEF.asm]
     1 AA4E 08				.byte [.len string]
     3 AA4F 50 72 69 6E 74 49 + 	.byte 'PrintIDE'
     2 AA57 C8				.byte 200
     3 AA58 3C A5			.word LIBIO.PRTIDE
Source: LIB.STM.asm
    83 AA5A 02 8A 0B			.byte	2,138,11
    84 AA5D			??en34	m_statement 'InputB',202, libio.inb	; #232
Macro: M_STATEMENT [Source: ACTION.DEF.asm]
     1 AA5D 06				.byte [.len string]
     3 AA5E 49 6E 70 75 74 42		.byte 'InputB'
     2 AA64 CA				.byte 202
     3 AA65 88 A5			.word LIBIO.INB
Source: LIB.STM.asm
    85 AA67 00				.byte	0
    86 AA68			??en35	m_statement 'InputBD',202, libio.inbd	; #53
Macro: M_STATEMENT [Source: ACTION.DEF.asm]
     1 AA68 07				.byte [.len string]
     3 AA69 49 6E 70 75 74 42 + 	.byte 'InputBD'
     2 AA70 CA				.byte 202
     3 AA71 8A A5			.word LIBIO.INBD
Source: LIB.STM.asm
    87 AA73 01 8A			.byte	1,138
    88 AA75			??en36	m_statement 'InputI',203, libio.ini_	; #239
Macro: M_STATEMENT [Source: ACTION.DEF.asm]
     1 AA75 06				.byte [.len string]
     3 AA76 49 6E 70 75 74 49		.byte 'InputI'
     2 AA7C CB				.byte 203
     3 AA7D 88 A5			.word LIBIO.INI_
Source: LIB.STM.asm
    89 AA7F 00				.byte	0
    90 AA80			??en37	m_statement 'InputID',203, libio.inid	; #67
Macro: M_STATEMENT [Source: ACTION.DEF.asm]
     1 AA80 07				.byte [.len string]
     3 AA81 49 6E 70 75 74 49 + 	.byte 'InputID'
     2 AA88 CB				.byte 203
     3 AA89 8A A5			.word LIBIO.INID
Source: LIB.STM.asm
    91 AA8B 01 8A			.byte	1,138
    92 AA8D			??en38	m_statement 'InputC',204, libio.inc_	; #233
Macro: M_STATEMENT [Source: ACTION.DEF.asm]
     1 AA8D 06				.byte [.len string]
     3 AA8E 49 6E 70 75 74 43		.byte 'InputC'
     2 AA94 CC				.byte 204
     3 AA95 88 A5			.word LIBIO.INC_
Source: LIB.STM.asm
    93 AA97 00				.byte	0
    94 AA98			??en39	m_statement 'InputCD',204, libio.incd	; #55
Macro: M_STATEMENT [Source: ACTION.DEF.asm]
     1 AA98 07				.byte [.len string]
     3 AA99 49 6E 70 75 74 43 + 	.byte 'InputCD'
     2 AAA0 CC				.byte 204
     3 AAA1 8A A5			.word LIBIO.INCD
Source: LIB.STM.asm
    95 AAA3 01 8A			.byte	1,138
    96 AAA5			??en40	m_statement 'ValB',202, libio.valb	; #207
Macro: M_STATEMENT [Source: ACTION.DEF.asm]
     1 AAA5 04				.byte [.len string]
     3 AAA6 56 61 6C 42			.byte 'ValB'
     2 AAAA CA				.byte 202
     3 AAAB 9A A5			.word LIBIO.VALB
Source: LIB.STM.asm
    97 AAAD 01 11			.byte	1,17
    98 AAAF			??en41	m_statement 'ValI',203, libio.vali	; #214
Macro: M_STATEMENT [Source: ACTION.DEF.asm]
     1 AAAF 04				.byte [.len string]
     3 AAB0 56 61 6C 49			.byte 'ValI'
     2 AAB4 CB				.byte 203
     3 AAB5 9A A5			.word LIBIO.VALI
Source: LIB.STM.asm
    99 AAB7 01 11			.byte	1,17
   100 AAB9			??en42	m_statement 'ValC',204, libio.valc	; #208
Macro: M_STATEMENT [Source: ACTION.DEF.asm]
     1 AAB9 04				.byte [.len string]
     3 AABA 56 61 6C 43			.byte 'ValC'
     2 AABE CC				.byte 204
     3 AABF 9A A5			.word LIBIO.VALC
Source: LIB.STM.asm
   101 AAC1 01 11			.byte	1,17
   102 AAC3			??en43	m_statement 'StrB',200, libio.strb	; #223
Macro: M_STATEMENT [Source: ACTION.DEF.asm]
     1 AAC3 04				.byte [.len string]
     3 AAC4 53 74 72 42			.byte 'StrB'
     2 AAC8 C8				.byte 200
     3 AAC9 44 A5			.word LIBIO.STRB
Source: LIB.STM.asm
   103 AACB 02 8A 11			.byte	2,138,17
   104 AACE			??en44	m_statement 'StrI',200, libio.stri	; #230
Macro: M_STATEMENT [Source: ACTION.DEF.asm]
     1 AACE 04				.byte [.len string]
     3 AACF 53 74 72 49			.byte 'StrI'
     2 AAD3 C8				.byte 200
     3 AAD4 5B A5			.word LIBIO.STRI
Source: LIB.STM.asm
   105 AAD6 02 0B 11			.byte	2,11,17
   106 AAD9			??en45	m_statement 'StrC',200, libio.strc	; #224
Macro: M_STATEMENT [Source: ACTION.DEF.asm]
     1 AAD9 04				.byte [.len string]
     3 AADA 53 74 72 43			.byte 'StrC'
     2 AADE C8				.byte 200
     3 AADF 4C A5			.word LIBIO.STRC
Source: LIB.STM.asm
   107 AAE1 02 0C 11			.byte	2,12,17
   108 AAE4			??en46	m_statement 'Note',200, libio.note	; #89
Macro: M_STATEMENT [Source: ACTION.DEF.asm]
     1 AAE4 04				.byte [.len string]
     3 AAE5 4E 6F 74 65			.byte 'Note'
     2 AAE9 C8				.byte 200
     3 AAEA 0D A6			.word LIBIO.NOTE
Source: LIB.STM.asm
   109 AAEC 03 8A 14 12			.byte	3,138,20,18
   110 AAF0			??en47	m_statement 'Point',200, libio.point	; #110
Macro: M_STATEMENT [Source: ACTION.DEF.asm]
     1 AAF0 05				.byte [.len string]
     3 AAF1 50 6F 69 6E 74		.byte 'Point'
     2 AAF6 C8				.byte 200
     3 AAF7 34 A6			.word LIBIO.POINT
Source: LIB.STM.asm
   111 AAF9 03 8A 0C 8A			.byte	3,138,12,138
   112 AAFD			??en48	m_statement 'Graphics',200, libgr.graphics	; #108
Macro: M_STATEMENT [Source: ACTION.DEF.asm]
     1 AAFD 08				.byte [.len string]
     3 AAFE 47 72 61 70 68 69 + 	.byte 'Graphics'
     2 AB06 C8				.byte 200
     3 AB07 54 A6			.word LIBGR.GRAPHICS
Source: LIB.STM.asm
   113 AB09 01 8A			.byte	1,138
   114 AB0B			??en49	m_statement 'DrawTo',200, libgr.drawto	; #231
Macro: M_STATEMENT [Source: ACTION.DEF.asm]
     1 AB0B 06				.byte [.len string]
     3 AB0C 44 72 61 77 54 6F		.byte 'DrawTo'
     2 AB12 C8				.byte 200
     3 AB13 8C A6			.word LIBGR.DRAWTO
Source: LIB.STM.asm
   115 AB15 02 0C 8A			.byte	2,12,138
   116 AB18			??en50	m_statement 'Position',200, libgr.position	; #94
Macro: M_STATEMENT [Source: ACTION.DEF.asm]
     1 AB18 08				.byte [.len string]
     3 AB19 50 6F 73 69 74 69 + 	.byte 'Position'
     2 AB21 C8				.byte 200
     3 AB22 AE A6			.word LIBGR.POSITION
Source: LIB.STM.asm
   117 AB24 02 0C 8A			.byte	2,12,138
   118 AB27			??en51	m_statement 'Locate',202, libgr.locate	; #97
Macro: M_STATEMENT [Source: ACTION.DEF.asm]
     1 AB27 06				.byte [.len string]
     3 AB28 4C 6F 63 61 74 65		.byte 'Locate'
     2 AB2E CA				.byte 202
     3 AB2F BB A6			.word LIBGR.LOCATE
Source: LIB.STM.asm
   119 AB31 02 0C 8A			.byte	2,12,138
   120 AB34			??en52	m_statement 'Plot',200, libgr.plot	; #131
Macro: M_STATEMENT [Source: ACTION.DEF.asm]
     1 AB34 04				.byte [.len string]
     3 AB35 50 6C 6F 74			.byte 'Plot'
     2 AB39 C8				.byte 200
     3 AB3A C3 A6			.word LIBGR.PLOT
Source: LIB.STM.asm
   121 AB3C 02 0C 8A			.byte	2,12,138
   122 AB3F			??en53	m_statement 'SetColor',200, libgr.setcolor	; #6
Macro: M_STATEMENT [Source: ACTION.DEF.asm]
     1 AB3F 08				.byte [.len string]
     3 AB40 53 65 74 43 6F 6C + 	.byte 'SetColor'
     2 AB48 C8				.byte 200
     3 AB49 CE A6			.word LIBGR.SETCOLOR
Source: LIB.STM.asm
   123 AB4B 03 8A 8A 8A			.byte	3,138,138,138
   124 AB4F			??en54	m_statement 'Fill',200, libgr.fill	; #122
Macro: M_STATEMENT [Source: ACTION.DEF.asm]
     1 AB4F 04				.byte [.len string]
     3 AB50 46 69 6C 6C			.byte 'Fill'
     2 AB54 C8				.byte 200
     3 AB55 E9 A6			.word LIBGR.FILL
Source: LIB.STM.asm
   125 AB57 02 0C 8A			.byte	2,12,138
   126 AB5A			??en55	m_statement 'Rand',202, libmisc.rand	; #117
Macro: M_STATEMENT [Source: ACTION.DEF.asm]
     1 AB5A 04				.byte [.len string]
     3 AB5B 52 61 6E 64			.byte 'Rand'
     2 AB5F CA				.byte 202
     3 AB60 F1 A6			.word LIBMISC.RAND
Source: LIB.STM.asm
   127 AB62 01 8A			.byte	1,138
   128 AB64			??en56	m_statement 'Sound',200, libmisc.sound	; #31
Macro: M_STATEMENT [Source: ACTION.DEF.asm]
     1 AB64 05				.byte [.len string]
     3 AB65 53 6F 75 6E 64		.byte 'Sound'
     2 AB6A C8				.byte 200
     3 AB6B 04 A7			.word LIBMISC.SOUND
Source: LIB.STM.asm
   129 AB6D 04 8A 8A 8A 8A		.byte	4,138,138,138,138
   130 AB72			??en57	m_statement 'SndRst',200, libmisc.sndrst	; #73
Macro: M_STATEMENT [Source: ACTION.DEF.asm]
     1 AB72 06				.byte [.len string]
     3 AB73 53 6E 64 52 73 74		.byte 'SndRst'
     2 AB79 C8				.byte 200
     3 AB7A 21 A7			.word LIBMISC.SNDRST
Source: LIB.STM.asm
   131 AB7C 00				.byte	0
   132 AB7D			??en58	m_statement 'Paddle',202, paddle		; #254
Macro: M_STATEMENT [Source: ACTION.DEF.asm]
     1 AB7D 06				.byte [.len string]
     3 AB7E 50 61 64 64 6C 65		.byte 'Paddle'
     2 AB84 CA				.byte 202
     3 AB85 37 AD			.word PADDLE
Source: LIB.STM.asm
   133 AB87 01 8A			.byte	1,138
   134 AB89			??en59	m_statement 'PTrig',202, libmisc.ptrig	; #164
Macro: M_STATEMENT [Source: ACTION.DEF.asm]
     1 AB89 05				.byte [.len string]
     3 AB8A 50 54 72 69 67		.byte 'PTrig'
     2 AB8F CA				.byte 202
     3 AB90 37 A7			.word LIBMISC.PTRIG
Source: LIB.STM.asm
   135 AB92 01 8A			.byte	1,138
   136 AB94			??en60	m_statement 'Stick',202, libmisc.stick	; #8
Macro: M_STATEMENT [Source: ACTION.DEF.asm]
     1 AB94 05				.byte [.len string]
     3 AB95 53 74 69 63 6B		.byte 'Stick'
     2 AB9A CA				.byte 202
     3 AB9B 4E A7			.word LIBMISC.STICK
Source: LIB.STM.asm
   137 AB9D 01 8A			.byte	1,138
   138 AB9F			??en61	m_statement 'STrig',202, strig	; #52
Macro: M_STATEMENT [Source: ACTION.DEF.asm]
     1 AB9F 05				.byte [.len string]
     3 ABA0 53 54 72 69 67		.byte 'STrig'
     2 ABA5 CA				.byte 202
     3 ABA6 2F AD			.word STRIG
Source: LIB.STM.asm
   139 ABA8 01 8A			.byte	1,138
   140 				;??en62 m_statement 'Peek',202, Peek ; #73
   141 				;	.byte	1,12
   142 				;??en63	m_statement 'PeekC',204, PeekC ; #245
   143 				;	.byte	1,12
   144 ABAA			??en64	m_statement 'Poke',200, libmisc.poke	; #120
Macro: M_STATEMENT [Source: ACTION.DEF.asm]
     1 ABAA 04				.byte [.len string]
     3 ABAB 50 6F 6B 65			.byte 'Poke'
     2 ABAF C8				.byte 200
     3 ABB0 77 A7			.word LIBMISC.POKE
Source: LIB.STM.asm
   145 ABB2 02 0C 8A			.byte	2,12,138
   146 ABB5			??en65	m_statement 'PokeC',200, libmisc.pokec	; #83
Macro: M_STATEMENT [Source: ACTION.DEF.asm]
     1 ABB5 05				.byte [.len string]
     3 ABB6 50 6F 6B 65 43		.byte 'PokeC'
     2 ABBB C8				.byte 200
     3 ABBC 81 A7			.word LIBMISC.POKEC
Source: LIB.STM.asm
   147 ABBE 02 0C 0C			.byte	2,12,12
   148 ABC1			??en66	m_statement 'Zero',200, libmisc.mzero	; #88
Macro: M_STATEMENT [Source: ACTION.DEF.asm]
     1 ABC1 04				.byte [.len string]
     3 ABC2 5A 65 72 6F			.byte 'Zero'
     2 ABC6 C8				.byte 200
     3 ABC7 8A A7			.word LIBMISC.MZERO
Source: LIB.STM.asm
   149 ABC9 02 12 0C			.byte	2,18,12
   150 ABCC			??en67	m_statement 'SetBlock',200, libmisc.setblock	; #203
Macro: M_STATEMENT [Source: ACTION.DEF.asm]
     1 ABCC 08				.byte [.len string]
     3 ABCD 53 65 74 42 6C 6F + 	.byte 'SetBlock'
     2 ABD5 C8				.byte 200
     3 ABD6 90 A7			.word LIBMISC.SETBLOCK
Source: LIB.STM.asm
   151 ABD8 03 12 0C 8A			.byte	3,18,12,138
   152 				;??en68 m_statement 'MoveBlock',200, MoveBlock ; #85
   153 				;	.byte	3,18,18,12
   154 ABDC			??en69	m_statement 'Break',200, libmisc.break	; #183
Macro: M_STATEMENT [Source: ACTION.DEF.asm]
     1 ABDC 05				.byte [.len string]
     3 ABDD 42 72 65 61 6B		.byte 'Break'
     2 ABE2 C8				.byte 200
     3 ABE3 DA A7			.word LIBMISC.BREAK
Source: LIB.STM.asm
   155 ABE5			??en70	m_statement 'SCompare',203, libstr.scompare	; #92
Macro: M_STATEMENT [Source: ACTION.DEF.asm]
     1 ABE5 08				.byte [.len string]
     3 ABE6 53 43 6F 6D 70 61 + 	.byte 'SCompare'
     2 ABEE CB				.byte 203
     3 ABEF 64 A8			.word LIBSTR.SCOMPARE
Source: LIB.STM.asm
   156 ABF1 02 11 11			.byte	2,17,17
   157 ABF4			??en71	m_statement 'SCopy',200, libstr.scopy	; #192
Macro: M_STATEMENT [Source: ACTION.DEF.asm]
     1 ABF4 05				.byte [.len string]
     3 ABF5 53 43 6F 70 79		.byte 'SCopy'
     2 ABFA C8				.byte 200
     3 ABFB 98 A8			.word LIBSTR.SCOPY
Source: LIB.STM.asm
   158 ABFD 02 11 11			.byte	2,17,17
   159 AC00			??en72	m_statement 'SCopyS',200, libstr.scopys	; #244
Macro: M_STATEMENT [Source: ACTION.DEF.asm]
     1 AC00 06				.byte [.len string]
     3 AC01 53 43 6F 70 79 53		.byte 'SCopyS'
     2 AC07 C8				.byte 200
     3 AC08 AF A8			.word LIBSTR.SCOPYS
Source: LIB.STM.asm
   160 AC0A 04 11 11 8A 8A		.byte	4,17,17,138,138
   161 AC0F			??en73	m_statement 'SAssign',200, libstr.sassign 	; #23
Macro: M_STATEMENT [Source: ACTION.DEF.asm]
     1 AC0F 07				.byte [.len string]
     3 AC10 53 41 73 73 69 67 + 	.byte 'SAssign'
     2 AC17 C8				.byte 200
     3 AC18 D8 A8			.word LIBSTR.SASSIGN
Source: LIB.STM.asm
   162 AC1A 04 11 11 8A 8A		.byte	4,17,17,138,138
   163 				;
   164 				; hash table, also uses statement definition from main bank
   165 				;
   166 AC1F				.use	mainbnk.statement_definitions
   167 AC1F			libst
   168 AC1F 00				.byte	0		; 1
   169 AC20 B7				.byte	>en1		; EOF #1
   170 AC21 B7				.byte	>en5		; TRACE #2
   171 AC22 00 00 00			.byte	0,0,0		; 3
   172 AC25 AB				.byte	>??en53		; SetColor #6
   173 AC26 00				.byte	0		; 1
   174 AC27 AB				.byte	>??en60		; Stick #8
   175 AC28 00 00 00 00			.byte	0,0,0,0 	; 4
   176 AC2C AA				.byte	>??en33		; PrintIDE #13
   177 AC2D B7				.byte	>en2		; color #14
   178 AC2E 00 00 00 00 00 00 + 	.byte	0,0,0,0,0,0,0,0 ; 8
   179 AC36 AC				.byte	>??en73		; SAssign #23
   180 AC37 00 00 00 00 00 00 + 	.byte	0,0,0,0,0,0,0	; 7
   181 AC3E AB				.byte	>??en56		; Sound #31
   182 AC3F B7				.byte	>en3		; LIST #32
   183 AC40 00 00 00 00 00 00 + 	.byte	0,0,0,0,0,0,0,0,0,0
   184 AC4A 00 00 00 00 00 00 + 	.byte	0,0,0,0,0,0,0,0,0 ; 19
   185 AC53 AB				.byte	>??en61		; STrig #52
   186 AC54 AA				.byte	>??en35		; InputBD #53
   187 AC55 00				.byte	0		; 1
   188 AC56 AA				.byte	>??en39		; InputCD #55
   189 AC57 00 00 00 00 00 00 + 	.byte	0,0,0,0,0,0,0,0,0,0
   190 AC61 00				.byte	0		; 11
   191 AC62 AA				.byte	>??en37		; InputID #67
   192 AC63 00 00			.byte	0,0		; 2
   193 AC65 AD				.byte	>??en24		; PrintBD #70
   194 AC66 A9				.byte	>??en23		; PrintBE #71
   195 AC67 AA				.byte	>??en28		; PrintCD #72
   196 AC68 A9				.byte	>??en27		; PrintCE #73
   197 AC69 AB				.byte	>??en57		; SndRst #74
   198 AC6A A9				.byte	>??en9		; PrintDE #75
   199 AC6B A9				.byte	>??en15		; InputMD #76
   200 AC6C AD				.byte	>??en62		; Peek #77
   201 AC6D 00 00 00 00 00		.byte	0,0,0,0,0	; 5
   202 AC72 AB				.byte	>??en65		; PokeC #83
   203 AC73 AA				.byte	>??en31		; PrintID #84
   204 AC74 AA				.byte	>??en32		; PrintIE #85
   205 AC75 AD				.byte	>??en68		; MoveBlock #86
   206 AC76 A9				.byte	>??en14		; InputSD #87
   207 AC77 AB				.byte	>??en66		; Zero #88
   208 AC78 AA				.byte	>??en46		; Note #89
   209 AC79 00 00			.byte	0,0		; 2
   210 AC7B B7				.byte	>en4		; device #92
   211 AC7C AB				.byte	>??en70		; SCompare #93
   212 AC7D AB				.byte	>??en50		; Position #94
   213 AC7E 00				.byte	0		; 1
   214 AC7F A9				.byte	>??en7		; Open #96
   215 AC80 AB				.byte	>??en51		; Locate #97
   216 AC81 00 00 00 00 00 00 + 	.byte	0,0,0,0,0,0,0,0,0,0 ; 10
   217 AC8B AA				.byte	>??en48		; Graphics #108
   218 AC8C 00				.byte	0		; 1
   219 AC8D AA				.byte	>??en47		; Point #110
   220 AC8E 00 00			.byte	0,0		; 2
   221 AC90 A9				.byte	>??en22		; PrintB #113
   222 AC91 A9				.byte	>??en26		; PrintC #114
   223 AC92 A9				.byte	>??en12		; PrintD #115
   224 AC93 A9				.byte	>??en8		; PrintE #116
   225 AC94 AD				.byte	>??en6		; PrintF #117
   226 AC95 AB				.byte	>??en55		; Rand #118
   227 AC96 00				.byte	0		; 1
   228 AC97 AA				.byte	>??en30		; PrintI #120
   229 AC98 AB				.byte	>??en64		; Poke #121
   230 AC99 AB				.byte	>??en54		; Fill #122
   231 AC9A 00 00 00 00 00 00 + 	.byte	0,0,0,0,0,0,0,0 ; 8
   232 ACA2 AB				.byte	>??en52		; Plot #131
   233 ACA3 00 00 00			.byte	0,0,0		; 3
   234 ACA6 A9				.byte	>??en11		; Print #135
   235 ACA7 00 00			.byte	0,0		; 2
   236 ACA9 A9				.byte	>??en16		; GetD #138
   237 ACAA 00 00 00 00 00 00 + 	.byte	0,0,0,0,0,0,0,0,0,0
   238 ACB4 00 00 00 00 00 00 + 	.byte	0,0,0,0,0,0,0,0 ; 18
   239 ACBC B7				.byte	>en0		; Error #157
   240 ACBD A9				.byte	>??en18		; Put #158
   241 ACBE 00 00			.byte	0,0		; 2
   242 ACC0 A9				.byte	>??en19		; PutD #161
   243 ACC1 A9				.byte	>??en17		; PutE #162
   244 ACC2 00				.byte	0		; 1
   245 ACC3 AB				.byte	>??en59		; PTrig #164
   246 ACC4 00 00 00			.byte	0,0,0		; 3
   247 ACC7 A9				.byte	>??en20		; PutDE #168
   248 ACC8 00 00 00 00 00 00 + 	.byte	0,0,0,0,0,0,0,0,0,0
   249 ACD2 00 00 00 00			.byte	0,0,0,0 	; 14
   250 ACD6 AB				.byte	>??en69		; Break #183
   251 ACD7 00 00 00 00 00 00 + 	.byte	0,0,0,0,0,0,0,0 ; 8
   252 ACDF AB				.byte	>??en71		; SCopy #192
   253 ACE0 00 00 00 00 00 00 + 	.byte	0,0,0,0,0,0,0,0,0,0 ; 10
   254 ACEA AB				.byte	>??en67		; SetBlock #203
   255 ACEB 00 00 00			.byte	0,0,0		; 3
   256 ACEE AA				.byte	>??en40		; ValB #207
   257 ACEF AA				.byte	>??en42		; ValC #208
   258 ACF0 00 00 00 00 00		.byte	0,0,0,0,0	; 5
   259 ACF5 AA				.byte	>??en41		; ValI #214
   260 ACF6 00 00 00 00 00 00 + 	.byte	0,0,0,0,0,0,0,0 ; 8
   261 ACFE AA				.byte	>??en43		; StrB #223
   262 ACFF AA				.byte	>??en45		; StrC #224
   263 AD00 A9				.byte	>??en21		; XIO #225
   264 AD01 00 00 00 00			.byte	0,0,0,0 	; 4
   265 AD05 AA				.byte	>??en44		; StrI #230
   266 AD06 AB				.byte	>??en49		; DrawTo #231
   267 AD07 AA				.byte	>??en34		; InputB #232
   268 AD08 AA				.byte	>??en38		; InputC #233
   269 AD09 00 00 00 00 00		.byte	0,0,0,0,0	; 5
   270 AD0E AA				.byte	>??en36		; InputI #239
   271 AD0F 00				.byte	0		; 1
   272 AD10 A9				.byte	>??en25		; PrintBDE #241
   273 AD11 00 00			.byte	0,0		; 2
   274 AD13 AC				.byte	>??en72		; SCopyS #244
   275 AD14 AA				.byte	>??en29		; PrintCDE #245
   276 AD15 AD				.byte	>??en63		; PeekC #246
   277 AD16 00 00			.byte	0,0		; 2
   278 AD18 A9				.byte	>??en13		; InputS #249
   279 AD19 00 00 00			.byte	0,0,0		; 3
   280 AD1C A9				.byte	>??en10		; Close #253
   281 AD1D AB				.byte	>??en58		; Paddle #254
   282 AD1E 00				.byte	0		; 1
   283 				;
   284 AD1F 00				.byte	0		; 1
   285 AD20 BC				.byte	<en1
   286 AD21 DE				.byte	<en5
   287 AD22 00 00 00			.byte	0,0,0		; 3
   288 AD25 3F				.byte	<??en53
   289 AD26 00				.byte	0		; 1
   290 AD27 94				.byte	<??en60
   291 AD28 00 00 00 00			.byte	0,0,0,0 	; 4
   292 AD2C 4E				.byte	<??en33
   293 AD2D C3				.byte	<en2
   294 AD2E 00				.byte	0		; 1
   295 				;
   296 				; .BYTE 0,0,0,0,0,0,0,0 ; 7
   297 AD2F AA			strig	tax
   298 AD30 BD 10 D0			lda	trig0,x		;TODO FIX! Use shadow register instead
   299 AD33 85 A0			sta	args
   300 AD35 60				rts
   301 				;
   302 AD36 0F				.byte	<??en73
   303 				;
   304 				; .BYTE 0,0,0,0,0,0,0 ; 7
   305 AD37 AA			paddle	tax
   306 AD38 BD 70 02			lda	paddl0,x
   307 AD3B 85 A0			sta	args
   308 AD3D 60				rts
   309 				;
   310 AD3E 64				.byte	<??en56
   311 AD3F CC				.byte	<en3
   312 AD40 00 00			.byte	0,0		; 2
   313 				;
   314 				; .BYTE 0,0,0,0,0,0,0,0,0,0
   315 				; .BYTE 0,0,0,0,0,0,0,0,0 ; 17
   316 AD42			??en6	m_statement 'PrintF',200, libio.prtf	; #117
Macro: M_STATEMENT [Source: ACTION.DEF.asm]
     1 AD42 06				.byte [.len string]
     3 AD43 50 72 69 6E 74 46		.byte 'PrintF'
     2 AD49 C8				.byte 200
     3 AD4A CC A3			.word LIBIO.PRTF
Source: LIB.STM.asm
   317 AD4C 06 11 0C 0C 0C 0C + 	.byte	6,17,12,12,12,12,12
   318 				;
   319 AD53 9F				.byte	<??en61
   320 AD54 68				.byte	<??en35
   321 AD55 00				.byte	0		; 1
   322 AD56 98				.byte	<??en39
   323 				;
   324 				; .BYTE 0,0,0,0,0,0,0,0,0,0
   325 				; .BYTE 0 ; 11
   326 AD57			??en63	m_statement 'PeekC',204, libmisc.peekc	; #245
Macro: M_STATEMENT [Source: ACTION.DEF.asm]
     1 AD57 05				.byte [.len string]
     3 AD58 50 65 65 6B 43		.byte 'PeekC'
     2 AD5D CC				.byte 204
     3 AD5E 67 A7			.word LIBMISC.PEEKC
Source: LIB.STM.asm
   327 AD60 01 0C			.byte	1,12
   328 				;
   329 AD62 80				.byte	<??en37
   330 AD63 00 00			.byte	0,0		; 2
   331 AD65 C8				.byte	<??en24
   332 AD66 D5				.byte	<??en23
   333 AD67 0A				.byte	<??en28
   334 AD68 FD				.byte	<??en27
   335 AD69 72				.byte	<??en57
   336 AD6A 2F				.byte	<??en9
   337 AD6B 7A				.byte	<??en15
   338 AD6C E0				.byte	<??en62
   339 AD6D 00 00 00 00 00		.byte	0,0,0,0,0	; 5
   340 AD72 B5				.byte	<??en65
   341 AD73 33				.byte	<??en31
   342 AD74 41				.byte	<??en32
   343 AD75 AB				.byte	<??en68
   344 AD76 6C				.byte	<??en14
   345 AD77 C1				.byte	<??en66
   346 AD78 E4				.byte	<??en46
   347 AD79 00 00			.byte	0,0		; 2
   348 AD7B D4				.byte	<en4
   349 AD7C E5				.byte	<??en70
   350 AD7D 18				.byte	<??en50
   351 AD7E 00				.byte	0		; 1
   352 AD7F 16				.byte	<??en7
   353 AD80 27				.byte	<??en51
   354 				;
   355 				; .BYTE 0,0,0,0,0,0,0,0,0,0 ; 10
   356 				; (c)1983ACS in internal char. qcode copyright
   357 AD81 08 63 09 11 19 18 + 	.byte	"(c)1983ACS"
   358 AD8B FD				.byte	<??en48
   359 AD8C 00				.byte	0		; 1
   360 AD8D F0				.byte	<??en47
   361 AD8E 00 00			.byte	0,0		; 2
   362 AD90 C9				.byte	<??en22
   363 AD91 F1				.byte	<??en26
   364 AD92 53				.byte	<??en12
   365 AD93 23				.byte	<??en8
   366 AD94 42				.byte	<??en6
   367 AD95 5A				.byte	<??en55
   368 AD96 00				.byte	0		; 1
   369 AD97 27				.byte	<??en30
   370 AD98 AA				.byte	<??en64
   371 AD99 4F				.byte	<??en54
   372 AD9A 00 00 00 00 00 00 + 	.byte	0,0,0,0,0,0,0,0 ; 8
   373 ADA2 34				.byte	<??en52
   374 ADA3 00 00 00			.byte	0,0,0		; 3
   375 ADA6 48				.byte	<??en11
   376 ADA7 00 00			.byte	0,0		; 2
   377 ADA9 89				.byte	<??en16
   378 ADAA 00				.byte	0		; 1
   379 				;
   380 				; .BYTE 0,0,0,0,0,0,0,0,0,0
   381 				; .BYTE 0,0,0,0,0,0,0,0 ; 17
   382 ADAB			??en68	m_statement 'MoveBlock',200, libmisc.moveblock	; #85
Macro: M_STATEMENT [Source: ACTION.DEF.asm]
     1 ADAB 09				.byte [.len string]
     3 ADAC 4D 6F 76 65 42 6C + 	.byte 'MoveBlock'
     2 ADB5 C8				.byte 200
     3 ADB6 B3 A7			.word LIBMISC.MOVEBLOCK
Source: LIB.STM.asm
   383 ADB8 03 12 12 0C			.byte	3,18,18,12
   384 				;
   385 ADBC AF				.byte	<en0
   386 ADBD 9C				.byte	<??en18
   387 ADBE 00 00			.byte	0,0		; 2
   388 ADC0 A5				.byte	<??en19
   389 ADC1 93				.byte	<??en17
   390 ADC2 00				.byte	0		; 1
   391 ADC3 89				.byte	<??en59
   392 ADC4 00 00 00			.byte	0,0,0		; 3
   393 ADC7 B0				.byte	<??en20
   394 				;
   395 				; .BYTE 0,0,0,0,0,0,0,0,0,0
   396 				; .BYTE 0,0,0,0 ; 14
   397 ADC8			??en24	m_statement 'PrintBD',200, libio.prtbd	; #70
Macro: M_STATEMENT [Source: ACTION.DEF.asm]
     1 ADC8 07				.byte [.len string]
     3 ADC9 50 72 69 6E 74 42 + 	.byte 'PrintBD'
     2 ADD0 C8				.byte 200
     3 ADD1 F4 A4			.word LIBIO.PRTBD
Source: LIB.STM.asm
   398 ADD3 02 8A 8A			.byte	2,138,138
   399 				;
   400 ADD6 DC				.byte	<??en69
   401 ADD7 00 00 00 00 00 00 + 	.byte	0,0,0,0,0,0,0,0 ; 8
   402 ADDF F4				.byte	<??en71
   403 				;
   404 				; .BYTE 0,0,0,0,0,0,0,0,0,0 ; 10
   405 ADE0			??en62	m_statement 'Peek',202, libmisc.peek	; #73
Macro: M_STATEMENT [Source: ACTION.DEF.asm]
     1 ADE0 04				.byte [.len string]
     3 ADE1 50 65 65 6B			.byte 'Peek'
     2 ADE5 CA				.byte 202
     3 ADE6 67 A7			.word LIBMISC.PEEK
Source: LIB.STM.asm
   406 ADE8 01 0C			.byte	1,12
   407 				;
   408 ADEA CC				.byte	<??en67
   409 ADEB 00 00 00			.byte	0,0,0		; 3
   410 ADEE A5				.byte	<??en40
   411 ADEF B9				.byte	<??en42
   412 ADF0 00 00 00 00 00		.byte	0,0,0,0,0	; 5
   413 ADF5 AF				.byte	<??en41
   414 ADF6 00 00 00 00 00 00 + 	.byte	0,0,0,0,0,0,0,0 ; 8
   415 ADFE C3				.byte	<??en43
   416 ADFF D9				.byte	<??en45
   417 AE00 BB				.byte	<??en21
   418 AE01 00 00 00 00			.byte	0,0,0,0 	; 4
   419 AE05 CE				.byte	<??en44
   420 AE06 0B				.byte	<??en49
   421 AE07 5D				.byte	<??en34
   422 AE08 8D				.byte	<??en38
   423 AE09 00 00 00 00 00		.byte	0,0,0,0,0	; 5
   424 AE0E 75				.byte	<??en36
   425 AE0F 00				.byte	0		; 1
   426 AE10 E2				.byte	<??en25
   427 AE11 00 00			.byte	0,0		; 2
   428 AE13 00				.byte	<??en72
   429 AE14 18				.byte	<??en29
   430 AE15 57				.byte	<??en63
   431 AE16 00 00			.byte	0,0		; 2
   432 AE18 60				.byte	<??en13
   433 AE19 00 00 00			.byte	0,0,0		; 3
   434 AE1C 3D				.byte	<??en10
   435 AE1D 7D				.byte	<??en58
   436 				; .BYTE 0 ; 1
   437 					.endl			; end of statement_definitions
    95 AE1E				icl	"lib/LIB.OPT.asm"
Source: LIB.OPT.asm
     1 				;
     2 				;	LIB.OPT
     3 				;
     4 				; Copyright 1983 by Clinton W Parker.
     5 				; All Rights Reserved.
     6 				; Original last modified July 6, 1983.
     7 				;
     8 				; This file is part of Action!.
     9 				;
    10 				; Action! is free software: you can redistribute it and/or modify
    11 				; it under the terms of the GNU General Public License as published by
    12 				; the Free Software Foundation, either version 3 of the License, or
    13 				; (at your option) any later version.
    14 				;
    15 				; Action! is distributed in the hope that it will be useful,
    16 				; but WITHOUT ANY WARRANTY; without even the implied warranty of
    17 				; MERCHANTABILITY or FITNESS FOR A PARTICULAR PURPOSE.  See the
    18 				; GNU General Public License for more details.
    19 				;
    20 				; You should have received a copy of the GNU General Public License
    21 				; along with Action!.  If not, see <http://www.gnu.org/licenses/>.
    22 				;
    23 				; @com.wudsn.ide.asm.mainsourcefile=../ACTION.asm
    24
    25 AE1E				.proc libopt
    26
    27 AE1E			setopts	.proc
    28
    29 AE1E				.proc set_display	; Display On?
    30 AE1E A2 14			ldx	#domsg-optmsg
    31 AE20 AC F1 04			ldy	tvdisp
    32 AE23 20 F3 AE			jsr	get_yes_or_no
    33 AE26 F0 04			beq	??do1
    34 AE28 A9 00			lda	#screen_definition.screen_off
    35 AE2A F0 02			beq	??do2
    36 AE2C A9 22		??do1	lda	#screen_definition.screen_on
    37 AE2E 8D F1 04		??do2	sta	tvdisp
    38 					.endp
    39
    40 AE31				.proc set_alarm		; Alarm?
    41 AE31 A2 1D			ldx	#amsg-optmsg
    42 AE33 AC E0 04			ldy	alarm
    43 AE36 C0 60			cpy	#opcode.rts_
    44 AE38 20 F3 AE			jsr	get_yes_or_no
    45 AE3B F0 04			beq	??a1
    46 AE3D A9 60			lda	#opcode.rts_	; RTS
    47 AE3F D0 02			bne	??a2
    48 AE41 A9 4C		??a1	lda	#opcode.jmp_abs	; JMP
    49 AE43 8D E0 04		??a2	sta	alarm
    50 					.endp
    51
    52 AE46				.proc set_case_sensitive ; Case sensitive?
    53 AE46 A2 23			ldx	#cmsg-optmsg
    54 AE48 AC CA 04			ldy	stmask
    55 AE4B C0 DF			cpy	#$df
    56 AE4D 20 F3 AE			jsr	get_yes_or_no
    57 AE50 F0 04			beq	??c1
    58 AE52 A9 DF			lda	#$df
    59 AE54 D0 02			bne	??c2
    60 AE56 A9 FF		??c1	lda	#$ff
    61 AE58 8D CA 04		??c2	sta	stmask
    62 					.endp
    63
    64 AE5B				.proc set_trace		; Trace On?
    65 AE5B A2 33			ldx	#tmsg-optmsg
    66 AE5D AC C3 04			ldy	vars.trace
    67 AE60 20 F3 AE			jsr	get_yes_or_no
    68 AE63 F0 04			beq	??t1
    69 AE65 A9 00			lda	#0
    70 AE67 F0 02			beq	??t2
    71 AE69 A9 FF		??t1	lda	#$ff
    72 AE6B 8D C3 04		??t2	sta	vars.trace
    73 					.endp
    74
    75 AE6E				.proc set_list		; List On?
    76 AE6E A2 3A			ldx	#lstmsg-optmsg
    77 AE70 AC 9A 04			ldy	vars.list
    78 AE73 20 F3 AE			jsr	get_yes_or_no
    79 AE76 F0 04			beq	??lst1
    80 AE78 A9 00			lda	#0
    81 AE7A F0 02			beq	??lst2
    82 AE7C A9 FF		??lst1	lda	#$ff
    83 AE7E 8D 9A 04		??lst2	sta	vars.list
    84 					.endp
    85
    86 AE81				.proc set_window_size	; Set window size
    87 AE81 AD CE 04			lda	wsize
    88 AE84 20 17 AF			jsr	get_string
    89 AE87 A2 40			ldx	#wmsg-optmsg
    90 AE89 20 22 AF			jsr	get_number
    91 AE8C C9 05			cmp	#5
    92 AE8E B0 02			bcs	??w0		; make sure at least 5
    93 AE90 A9 05			lda	#5
    94 AE92 C9 13		??w0	cmp	#19
    95 AE94 90 02			bcc	??w1		; make sure less than 19
    96 AE96 A9 12			lda	#18
    97 AE98 8D CE 04		??w1	sta	wsize
    98 AE9B AE A5 04			ldx	vars.numwd
    99 AE9E F0 11			beq	??l1
   100 AEA0 8D 8C 04			sta	vars.w1+wnlns
   101 AEA3 A8				tay	
   102 AEA4 C8				iny	
   103 AEA5 8C BE 04			sty	vars.w2+wytop
   104 AEA8 38				sec	
   105 AEA9 A9 17			lda	#23
   106 AEAB ED CE 04			sbc	wsize
   107 AEAE 8D BD 04			sta	vars.w2+wnlns
   108 AEB1			??l1
   109 					.endp
   110
   111 AEB1				.proc set_line_size	; Set line size
   112 AEB1 AD CF 04			lda	linemax
   113 AEB4 20 17 AF			jsr	get_string
   114 AEB7 A2 4F			ldx	#lmsg-optmsg
   115 AEB9 20 22 AF			jsr	get_number
   116 AEBC 8D CF 04			sta	linemax
   117 					.endp
   118
   119 AEBF				.proc set_left_margin	; Set left margin
   120 AEBF A5 52			lda	lmargin
   121 AEC1 20 17 AF			jsr	get_string
   122 AEC4 A2 5A			ldx	#lmmsg-optmsg
   123 AEC6 20 22 AF			jsr	get_number
   124 AEC9 85 52			sta	lmargin
   125 					.endp
   126
   127 AECB				.proc set_eol_char	; Set EOL char
   128 AECB AD E3 04			lda	eolch
   129 AECE A8				tay			; Save ASCII value
   130 AECF 2A				rol			; Convert ASCII to screen code
   131 AED0 2A				rol
   132 AED1 2A				rol
   133 AED2 2A				rol
   134 AED3 29 03			and	#3
   135 AED5 AA				tax
   136 AED6 98				tya
   137 AED7 29 9F			and	#$9f
   138 AED9 1D 9B AF			ora	stoa,x
   139 AEDC A8				tay	
   140 AEDD A2 67			ldx	#emsg-optmsg
   141 AEDF 20 FB AE			jsr	get_yes_or_no.??yn2
   142 AEE2 AD 91 05			lda	tempbuf+1
   143 AEE5 A8				tay	
   144 AEE6 29 60			and	#$60
   145 AEE8 AA				tax	
   146 AEE9 98				tya	
   147 AEEA 29 9F			and	#$9f
   148 AEEC 1D 90 04			ora	vars.chcvt,x
   149 AEEF 8D E3 04			sta	eolch
   150 					.endp
   151 AEF2 60				rts	
   152
   153 AEF3				.proc get_yes_or_no
   154 AEF3 F0 04			beq	??yn1			;Determine character for current flag value
   155 AEF5 A0 59			ldy	#'Y'
   156 AEF7 D0 02			bne	??yn2
   157 AEF9 A0 4E		??yn1	ldy	#'N'
   158 AEFB 8C 91 05		??yn2	sty	tempbuf+1
   159 AEFE A0 01			ldy	#1
   160 AF00 20 9F AF			jsr	gettmpbuf
   161 AF03 AD 91 05			lda	tempbuf+1
   162 AF06 AC 90 05			ldy	tempbuf
   163 AF09 D0 07			bne	??yn5
   164 AF0B C9 1B			cmp	#character.escape
   165 AF0D D0 02			bne	??yn4
   166 AF0F 68			exit	pla	
   167 AF10 68				pla	
   168 AF11 60			??yn4	rts
   169
   170 AF12 09 20		??yn5	ora	#'a'-'A'		;Convert to lower case
   171 AF14 C9 79			cmp	#'y'
   172 AF16 60				rts	
   173 					.end
   174
   175 AF17				.proc get_string
   176 AF17 A2 00			ldx	#0
   177 AF19 A0 05			ldy	#>tempbuf
   178 AF1B 84 A3			sty	arg3
   179 AF1D A0 90			ldy	#<tempbuf
   180 AF1F 4C 4C A5			jmp	lib.libio.strc
   181 					.endp
   182
   183 AF22				.proc get_number
   184 AF22 AC 90 05			ldy	tempbuf
   185 AF25 20 9F AF			jsr	gettmpbuf
   186 AF28 AC 90 05			ldy	tempbuf
   187 AF2B D0 07			bne	??gn0
   188 AF2D AD 91 05			lda	tempbuf+1
   189 AF30 C9 1B			cmp	#character.escape
   190 AF32 F0 DB			beq	get_yes_or_no.exit
   191 AF34 A9 90		??gn0	lda	#<tempbuf
   192 AF36 A2 05			ldx	#>tempbuf
   193 AF38 20 9A A5			jsr	lib.libio.valb
   194 AF3B A5 A0			lda	args
   195 AF3D 60				rts
   196 					.endp
   197
   198
   199 					.macro m_opt_string	; TODO: Why is length 1 larger than normally?
   200 					.byte [.len string]+1
   201 					.local string
   202 					.byte :1
   203 					.endl
   204 					.endm
   205
   206 AF3E			domsg	m_opt_string 'Display?'
Macro: LIB.LIBOPT.SETOPTS.M_OPT_STRING [Source: LIB.OPT.asm]
     1 AF3E 09				.byte [.len string]+1
     3 AF3F 44 69 73 70 6C 61 + 	.byte 'Display?'
Source: LIB.OPT.asm
   207
   208 = AF2A			optmsg	equ	domsg-20	; see GetTemp
   209
   210 AF47			amsg	m_opt_string 'Bell?'
Macro: LIB.LIBOPT.SETOPTS.M_OPT_STRING [Source: LIB.OPT.asm]
     1 AF47 06				.byte [.len string]+1
     3 AF48 42 65 6C 6C 3F		.byte 'Bell?'
Source: LIB.OPT.asm
   211 AF4D			cmsg	m_opt_string 'Case sensitive?'
Macro: LIB.LIBOPT.SETOPTS.M_OPT_STRING [Source: LIB.OPT.asm]
     1 AF4D 10				.byte [.len string]+1
     3 AF4E 43 61 73 65 20 73 + 	.byte 'Case sensitive?'
Source: LIB.OPT.asm
   212 AF5D			tmsg	m_opt_string 'Trace?'
Macro: LIB.LIBOPT.SETOPTS.M_OPT_STRING [Source: LIB.OPT.asm]
     1 AF5D 07				.byte [.len string]+1
     3 AF5E 54 72 61 63 65 3F		.byte 'Trace?'
Source: LIB.OPT.asm
   213 AF64			lstmsg	m_opt_string 'List?'
Macro: LIB.LIBOPT.SETOPTS.M_OPT_STRING [Source: LIB.OPT.asm]
     1 AF64 06				.byte [.len string]+1
     3 AF65 4C 69 73 74 3F		.byte 'List?'
Source: LIB.OPT.asm
   214 AF6A			wmsg	m_opt_string 'Window 1 size:'
Macro: LIB.LIBOPT.SETOPTS.M_OPT_STRING [Source: LIB.OPT.asm]
     1 AF6A 0F				.byte [.len string]+1
     3 AF6B 57 69 6E 64 6F 77 + 	.byte 'Window 1 size:'
Source: LIB.OPT.asm
   215 AF79			lmsg	m_opt_string 'Line size:'
Macro: LIB.LIBOPT.SETOPTS.M_OPT_STRING [Source: LIB.OPT.asm]
     1 AF79 0B				.byte [.len string]+1
     3 AF7A 4C 69 6E 65 20 73 + 	.byte 'Line size:'
Source: LIB.OPT.asm
   216 AF84			lmmsg	m_opt_string 'Left margin:'
Macro: LIB.LIBOPT.SETOPTS.M_OPT_STRING [Source: LIB.OPT.asm]
     1 AF84 0D				.byte [.len string]+1
     3 AF85 4C 65 66 74 20 6D + 	.byte 'Left margin:'
Source: LIB.OPT.asm
   217 AF91			emsg	m_opt_string 'EOL char:'
Macro: LIB.LIBOPT.SETOPTS.M_OPT_STRING [Source: LIB.OPT.asm]
     1 AF91 0A				.byte [.len string]+1
     3 AF92 45 4F 4C 20 63 68 + 	.byte 'EOL char:'
Source: LIB.OPT.asm
   218
   219 AF9B			stoa	.local
   220 AF9B 20 40 00 60			.byte	$20,$40,$00,$60
   221 					.endl
   222
   223
   224 AF9F			gettmpbuf	.proc	
   225 AF9F 84 A2			sty	arg2
   226
   227 				; copy string to tempBuf+10
   228 AFA1 A0 14			ldy	#20
   229 AFA3 BD 3E AF		??gt1	lda	optmsg+20,x
   230 AFA6 99 9A 05			sta	tempbuf+10,y
   231 AFA9 CA				dex	
   232 AFAA 88				dey	
   233 AFAB 10 F6			bpl	??gt1
   234
   235 				; put space at end
   236 AFAD A8				tay	
   237 AFAE A9 20			lda	#' '
   238 AFB0 99 9A 05			sta	tempbuf+10,y
   239
   240 AFB3 A9 9A			lda	#<(tempbuf+10)
   241 AFB5 A2 05			ldx	#>(tempbuf+10)
   242 AFB7 A4 A2			ldy	arg2
   243 AFB9 4C 62 B8			jmp	mainbnk.mgett1
   244 					.endp
   245 					
   246 					.endp
   247
   248 					.endp			; end of libopt
    96 					.endl
    97
    98 AFBC				.local cpyright
    99 AFBC 41 43 54 49 4F 4E + 	.byte	'ACTION! (c)1983 Action Computer Services (ACS)  November 4, 1983  '
   100 					.endl
   101
   102 AFFE				m_end_switched_bank ll lbank
Macro: M_END_SWITCHED_BANK [Source: ACTION.ROM.asm]
     1 AFFE			bank_used_end
     3 AFFF			bank_end
     4 AFFF 00				.byte	rom.LBANK & rom.bankmsk	; Bank identifier at end of bank.
     5 					.print "Ending switched bank LL/LBANK: " , bank_used_end, " - ", bank_end, "(", bank_end-bank_used_end+1, " bytes free)"
     5 				Ending switched bank LL/LBANK: $AFFE - $AFFF($0002 bytes free)
Source: ACTION-ROM-OSS-16k.asm
   103
   104
   105 				;	"ACTION! 3.6 - Compiler
   106 				;	-----------------------
   107 					opt	f-
   108 B000				org	rom.cl
   109 					opt	f+
   110
   111 A000				.local	compiler
   112 A000				icl	"compiler/COMPILER.asm"
Source: COMPILER.asm
     1 				;
     2 				;	COMPILER.ASM
     3 				;
     4 				; Copyright 1982 by Clinton W Parker.
     5 				; All Rights Reserved.
     6 				; Original last modified September 9, 1983.
     7 				;
     8 				; This file is part of Action!.
     9 				;
    10 				; Action! is free software: you can redistribute it and/or modify
    11 				; it under the terms of the GNU General Public License as published by
    12 				; the Free Software Foundation, either version 3 of the License, or
    13 				; (at your option) any later version.
    14 				;
    15 				; Action! is distributed in the hope that it will be useful,
    16 				; but WITHOUT ANY WARRANTY; without even the implied warranty of
    17 				; MERCHANTABILITY or FITNESS FOR A PARTICULAR PURPOSE.  See the
    18 				; GNU General Public License for more details.
    19 				;
    20 				; You should have received a copy of the GNU General Public License
    21 				; along with Action!.  If not, see <http://www.gnu.org/licenses/>.
    22 				;
    23 				; @com.wudsn.ide.asm.mainsourcefile=../ACTION.asm
    24
    25 A000				.proc ccompile		; cross-bank entry point
    26
    27 A000				.use mainmsc
    28 A000				.use cgu		; uses code generation unit
    29
    30 = B363			getnext		= lexicon.getnext
    31 = B504			lexget.lget	= lexicon.lexget.lget
    32
    33 A000			spl_	.proc	
    34 A000 20 DD 04			jsr	splend
    35
    36 A003 A5 D3			lda	nxttoken
    37 A005 C9 1E			cmp	#tokens.quote
    38 A007 D0 06			bne	??spl1		; no name
    39 A009 20 04 B5			jsr	lexget.lget
    40 A00C 4C 1C A0			jmp	??spl2
    41
    42 A00F AD 8F 04		??spl1	lda	vars.top1
    43 A012 85 91			sta	top+1
    44 A014 20 B9 B2			jsr	mainio.chkcur.ldtop
    45 A017 F0 72			beq	??splrtn	; no program !
    46 A019 20 63 B3			jsr	getnext
    47
    48 A01C 20 63 B3		??spl2	jsr	getnext
    49
    50 				; <program> ??:= <module list> MODULE <module>
    51 				;                 | (MODULE) <module>
    52 				; <module> ??:= (<dcl list>) (<segment list>)
    53
    54 A01F 20 21 A1			jsr	cderr.declare
    55 A022 20 80 BA			jsr	segment
    56
    57 A025 C9 57			cmp	#tokens.modid	; another module ?
    58 A027 F0 F3			beq	??spl2		; yes
    59
    60 A029 C9 7F			cmp	#tokens.eofid
    61 A02B D0 5F			bne	??spl4
    62 A02D A9 01			lda	#1		; save run address
    63 A02F 20 75 B7			jsr	prop.cprop
    64 A032 8D E2 02			sta	initad
    65 A035 8E E3 02			stx	initad+1
    66
    67 								; insert return, just in case
    68 A038 A9 60		??rtn	lda	#opcode.rts_	; RTS
    69 A03A 20 80 BF			jsr	push1
    70
    71 A03D 38				sec			; get qcode size
    72 A03E A5 0E			lda	qcode
    73 A040 ED 91 04			sbc	vars.codebase
    74 A043 8D 93 04			sta	vars.codesize
    75 A046 A5 0F			lda	qcode+1
    76 A048 ED 92 04			sbc	vars.codebase+1
    77 A04B 8D 94 04			sta	vars.codesize+1
    78
    79 A04E A5 D1			lda	arrayptr+1	; patch array addresses
    80 				; ORA arrayPtr
    81 A050 F0 39			beq	??splrtn
    82
    83 A052 A0 01		??spl3	ldy	#1
    84 A054 B1 D0			lda	(arrayptr),y
    85 A056 85 A1			sta	arg1
    86 A058 88				dey	
    87 A059 B1 D0			lda	(arrayptr),y
    88 A05B 85 A0			sta	arg0
    89 A05D 20 E0 B6			jsr	getcdoff
    90 A060 91 D0			sta	(arrayptr),y
    91 A062 8A				txa	
    92 A063 C8				iny	
    93 A064 91 D0			sta	(arrayptr),y
    94
    95 A066 18				clc	
    96 A067 C8				iny	
    97 A068 A5 0E			lda	qcode
    98 A06A 71 D0			adc	(arrayptr),y
    99 A06C 85 0E			sta	qcode
   100 A06E C8				iny	
   101 A06F A5 0F			lda	qcode+1
   102 A071 71 D0			adc	(arrayptr),y
   103 A073 85 0F			sta	qcode+1
   104
   105 A075 A5 A0			lda	arg0
   106 A077 85 D0			sta	arrayptr
   107 A079 A5 A1			lda	arg1
   108 A07B 85 D1			sta	arrayptr+1
   109 A07D D0 D3			bne	??spl3
   110 				; LDA arrayPtr
   111 				; BNE ??SPL3
   112
   113 A07F A5 0E			lda	qcode
   114 A081 CD E5 02			cmp	memtop
   115 A084 A5 0F			lda	qcode+1
   116 A086 ED E6 02			sbc	memtop+1
   117 A089 B0 16			bcs	??spl5
   118
   119 A08B 60			??splrtn	rts	
   120
   121 A08C 20 E0 B6		??spl4	jsr	getcdoff	; no main .proc
   122 A08F 8D E2 02			sta	initad
   123 A092 8E E3 02			stx	initad+1
   124 A095 20 4B A3			jsr	stmtlist
   125 A098 C9 7F			cmp	#tokens.eofid
   126 A09A F0 9C			beq	??rtn
   127
   128 				;EndErr LDY #0
   129 				; 	STY initad+1 		; zap run address
   130 				;enderr
   131 A09C A0 0B			ldy	#errors.ender
   132 A09E 4C B2 A4			jmp	fierr
   133
   134 A0A1 4C 5C B7		??spl5	jmp	codeincr.cderr		; out of qcode space
   135 					.endp
   136
   137 				;=====================================
   138 				;	Declaration processing
   139 				;=====================================
   140 				; <dcl list> ??:= <dcl list> <dcl> | <dcl>
   141 				; <dcl> ??:= <simple dcl> | <array dcl> | <def dcl>
   142
   143 A0A4			cderr	.proc	
   144 A0A4 A9 00		??cderr	lda	#0		; reset qcode before err
   145 A0A6 A8				tay	
   146 A0A7 20 03 BF			jsr	loadcd
   147 A0AA 4C C6 A1		??derr	jmp	dclerr
   148
   149 A0AD A9 BE		??type	lda	#tokens.recordid-(tokens.vart-tokens.charid)-1
   150 A0AF 8D 99 04			sta	vars.type
   151 A0B2 20 8F A2			jsr	makeentry
   152 A0B5 A5 C0			lda	addr
   153 A0B7 A6 C1			ldx	addr+1
   154 A0B9 A0 02			ldy	#2
   155 A0BB 20 14 BF			jsr	savecd.savstk
   156 A0BE A0 00			ldy	#0
   157 A0C0 20 10 BF			jsr	savecd
   158 A0C3 20 63 B3			jsr	getnext
   159 A0C6 C9 07			cmp	#tokens.equalid
   160 A0C8 D0 E0			bne	??derr
   161 A0CA 20 63 B3			jsr	getnext
   162 A0CD C9 5B			cmp	#tokens.lbrack
   163 A0CF D0 D9			bne	??derr
   164 A0D1 38				sec	
   165 A0D2 A9 00			lda	#0
   166 A0D4 E5 B5			sbc	codeoff
   167 A0D6 85 0E			sta	qcode
   168 A0D8 A9 00			lda	#0
   169 A0DA E5 B6			sbc	codeoff+1
   170 A0DC 85 0F			sta	qcode+1
   171 A0DE 20 63 B3			jsr	getnext
   172 A0E1 C9 20		??t1	cmp	#tokens.charid
   173 A0E3 90 BF			bcc	??cderr
   174 A0E5 C9 26			cmp	#tokens.defineid
   175 A0E7 B0 BB			bcs	??cderr
   176 A0E9 AA				tax	
   177 A0EA 18				clc	
   178 A0EB 69 E8			adc	#tokens.typet-tokens.vart
   179 A0ED 8D 99 04			sta	vars.type
   180 A0F0 BD 25 A3			lda	varsize-tokens.charid,x
   181 A0F3 85 84			sta	afcur
   182 A0F5 20 8F A2		??t2	jsr	makeentry
   183 A0F8 A5 84			lda	afcur
   184 A0FA 20 4D B7			jsr	codeincr
   185 A0FD 20 63 B3			jsr	getnext
   186 A100 C9 1A			cmp	#tokens.comma
   187 A102 F0 F1			beq	??t2
   188 A104 C9 5D			cmp	#tokens.rbrack
   189 A106 D0 D9			bne	??t1
   190 A108 A0 02			ldy	#2
   191 A10A 20 41 BF			jsr	stkp
   192 A10D A6 0F			ldx	qcode+1
   193 A10F D0 93			bne	??cderr
   194 A111 A5 0E			lda	qcode
   195 A113 A0 00			ldy	#0
   196 A115 20 FE A2			jsr	storprops
   197 A118 A9 00			lda	#0
   198 A11A A8				tay	
   199 A11B 20 03 BF			jsr	loadcd
   200 A11E 20 63 B3			jsr	getnext
   201
   202 A121 20 D4 04		declare	jsr	dclend
   203 A124 C9 20			cmp	#tokens.charid
   204 A126 B0 01			bcs	??dcl0
   205 A128 60			??drtn	rts	
   206
   207 A129 C9 46		??dcl0	cmp	#tokens.typeid
   208 A12B F0 80			beq	??type
   209
   210 A12D C9 27			cmp	#tokens.recordid
   211 A12F D0 10			bne	??dcl1
   212
   213 							; record dcl.
   214 A131 A9 00			lda	#0
   215 A133 20 7B B7			jsr	prop.getprop
   216 A136 86 84			stx	afcur
   217 A138 A6 D3			ldx	nxttoken
   218 A13A A9 07			lda	#tokens.typet-(tokens.vart-tokens.charid)-1
   219 A13C 8D 99 04			sta	vars.type
   220 A13F D0 19			bne	??dcl2		; unconditional branch
   221
   222 A141 C9 26		??dcl1	cmp	#tokens.defineid
   223 A143 F0 52			beq	??define
   224 A145 B0 E1			bcs	??drtn
   225 A147 8D 99 04			sta	vars.type
   226 A14A AA				tax	
   227 A14B BC 25 A3			ldy	varsize-tokens.charid,x
   228 A14E 84 84			sty	afcur
   229 A150 A6 D3			ldx	nxttoken
   230 A152 E0 41			cpx	#tokens.funcid
   231 A154 F0 D2			beq	??drtn
   232 A156 E0 40			cpx	#tokens.arrayid
   233 A158 F0 71			beq	arrdcl
   234 A15A E0 45		??dcl2	cpx	#tokens.pointerid
   235 A15C D0 06			bne	??sdcl
   236 A15E A0 00			ldy	#0
   237 A160 84 84			sty	afcur
   238 A162 F0 67			beq	arrdcl		; unconditional branch
   239
   240
   241 				; <simple dcl> ??:= <type> <id eq list>
   242 				; <id eq list> ??:= <id eq list> , <id eq> | <id eq>
   243 				; <id eq> ??:= <id> (= <constant>)
   244
   245 A164 20 8F A2		??sdcl	jsr	makeentry
   246
   247 A167 AE 9D 04			ldx	vars.param
   248 A16A F0 0A			beq	??sdcl0
   249 A16C 20 05 A3			jsr	params
   250 A16F AE 9D 04			ldx	vars.param
   251 A172 10 14			bpl	??sdcl1
   252 A174 30 17			bmi	??sdcl2
   253
   254 A176 A5 D3		??sdcl0	lda	nxttoken
   255 A178 C9 07			cmp	#tokens.equalid
   256 A17A D0 0C			bne	??sdcl1
   257 A17C 20 D2 A2			jsr	ideq
   258 A17F C8				iny	
   259 A180 20 FE A2			jsr	storprops
   260 A183 20 63 B3			jsr	getnext
   261 A186 D0 05			bne	??sdcl2
   262
   263 A188 A5 84		??sdcl1	lda	afcur
   264 A18A 20 4D B7			jsr	codeincr
   265
   266 A18D 20 63 B3		??sdcl2	jsr	getnext
   267 A190 C9 1A			cmp	#tokens.comma
   268 A192 F0 D0		??sdcl3	beq	??sdcl
   269 A194 4C 21 A1			jmp	declare
   270
   271
   272 				; <def dcl> ??:= DEFINE <def list>
   273 				; <def list> ??:= <def list> , <def> | <def>
   274 				; <def> ??:= <id> = <str const>
   275
   276 A197			??define
   277 A197 20 8F A2			jsr	makeentry
   278 A19A A0 00			ldy	#0
   279 A19C A9 1B			lda	#tokens.defid
   280 A19E 91 88			sta	(props),y
   281 A1A0 20 63 B3			jsr	getnext
   282 A1A3 C9 07			cmp	#tokens.equalid
   283 A1A5 D0 1F			bne	dclerr
   284 A1A7 A5 D3			lda	nxttoken
   285 A1A9 C9 1E			cmp	#tokens.quote
   286 A1AB D0 19			bne	dclerr
   287 A1AD A0 00			ldy	#0
   288 A1AF B1 BD			lda	(symtab),y
   289 A1B1 18				clc	
   290 A1B2 69 02			adc	#2		; real size + EOL
   291 A1B4 20 39 B7			jsr	stincr
   292 A1B7 20 63 B3			jsr	getnext		; string itself
   293 A1BA 20 63 B3			jsr	getnext		; dummy string
   294 A1BD 20 63 B3			jsr	getnext
   295 A1C0 C9 1A			cmp	#tokens.comma
   296 A1C2 D0 CE			bne	??sdcl3
   297 A1C4 F0 D1			beq	??define	; Unconditional branch
   298 					.endp
   299
   300 A1C6			dclerr	.proc
   301 A1C6 A0 06			ldy	#errors.dcler
   302 A1C8 4C 83 B8			jmp	mainbnk.splerr
   303 					.endp
   304
   305 				; <array dcl> ??:= <type> ARRAY <array list>
   306 				; <array list> ??:= <array list> , <array> | <array>
   307 				; <array> ??:= <id> ((<constant>)) (= <constant>)
   308
   309 A1CB				.proc arrdcl
   310 A1CB 18				clc	
   311 A1CC 69 08			adc	#8
   312 A1CE 8D 99 04			sta	vars.type
   313 A1D1 20 63 B3			jsr	getnext
   314 A1D4 20 8F A2		??arrd1	jsr	makeentry
   315 A1D7 A9 02			lda	#2
   316 A1D9 8D 9B 04			sta	vars.numargs	; variable space
   317
   318 A1DC AE 9D 04			ldx	vars.param
   319 A1DF D0 60			bne	??arrd5
   320
   321 A1E1 A5 D3			lda	nxttoken
   322 A1E3 A6 84			ldx	afcur
   323 A1E5 F0 64			beq	??arrd2		; no size for pointers
   324
   325 A1E7 C9 19			cmp	#tokens.lparen
   326 A1E9 D0 60			bne	??arrd2
   327 A1EB A9 04			lda	#4
   328 A1ED 8D 9B 04			sta	vars.numargs
   329 A1F0 A5 D0			lda	arrayptr
   330 A1F2 A6 D1			ldx	arrayptr+1
   331 A1F4 A0 00			ldy	#0
   332 A1F6 20 ED B6			jsr	storevar
   333 A1F9 20 DD A2			jsr	getarsz
   334 A1FC 20 63 B3			jsr	getnext
   335
   336 							; check for small byte array
   337 A1FF A0 02			ldy	#2
   338 A201 A9 00			lda	#0
   339 A203 D1 0E			cmp	(qcode),y
   340 A205 C8				iny	
   341 A206 A9 01			lda	#1
   342 A208 F1 0E			sbc	(qcode),y
   343 A20A B0 61			bcs	??arrd6		; size <= 256
   344
   345 A20C 20 63 B3		??ard2a	jsr	getnext
   346 A20F C9 18			cmp	#tokens.rparen
   347 A211 D0 B3			bne	dclerr
   348 A213 A5 D3			lda	nxttoken
   349 A215 C9 07			cmp	#tokens.equalid
   350 A217 F0 36			beq	??ard2c
   351
   352 A219 AD 9B 04		??arrd3	lda	vars.numargs
   353 A21C D0 0A			bne	??ard3a
   354 							; small array
   355 A21E A0 02			ldy	#2
   356 A220 B1 0E			lda	(qcode),y
   357 A222 D0 10			bne	??ard3b
   358 A224 E6 0F			inc	qcode+1
   359 A226 D0 0F			bne	??arrd4		; unconditional branch
   360
   361 							; array var
   362 A228 C9 04		??ard3a	cmp	#4
   363 A22A 30 08			bmi	??ard3b
   364
   365 							; large array with memory
   366 A22C A6 0E			ldx	qcode
   367 A22E 86 D0			stx	arrayptr
   368 A230 A6 0F			 ldx	qcode+1
   369 A232 86 D1			 stx	arrayptr+1
   370
   371 A234 20 4D B7		??ard3b	jsr	codeincr
   372
   373 A237 20 63 B3		??arrd4	jsr	getnext
   374 A23A C9 1A			cmp	#tokens.comma
   375 A23C F0 96			beq	??arrd1
   376 A23E 4C 21 A1			jmp	cderr.declare
   377
   378 A241 20 05 A3		??arrd5	jsr	params
   379 A244 AE 9D 04			ldx	vars.param
   380 A247 10 D0			bpl	??arrd3
   381 A249 30 EC			bmi	??arrd4
   382
   383 A24B C9 07		??arrd2	cmp	#tokens.equalid
   384 A24D D0 CA			bne	??arrd3
   385 A24F 20 D2 A2		??ard2c	jsr	ideq
   386 A252 AC 9B 04			ldy	vars.numargs
   387 A255 F0 08			beq	??ard2b
   388 A257 A0 00			ldy	#0
   389 A259 20 ED B6			jsr	storevar
   390 A25C 20 E0 B6			jsr	getcdoff
   391 A25F A0 01		??ard2b	ldy	#1
   392 A261 20 FE A2			jsr	storprops
   393 A264 20 63 B3			jsr	getnext
   394 A267 AD 9B 04			lda	vars.numargs
   395 A26A 4C 34 A2			jmp	??ard3b
   396
   397 A26D A0 00		??arrd6	ldy	#0
   398 A26F B1 88			lda	(props),y
   399 A271 C9 93			cmp	#tokens.arrayt+types.intt
   400 A273 B0 97			bcs	??ard2a
   401 								; small byte array
   402 A275 8C 9B 04			sty	vars.numargs
   403 A278 09 08			ora	#8
   404 A27A 91 88			sta	(props),y
   405 A27C C8				iny	
   406 A27D 20 E0 B6			jsr	getcdoff
   407 A280 20 FE A2			jsr	storprops
   408 A283 D0 87			bne	??ard2a		; Unconditional branch
   409 					.endp
   410
   411 A285			chkparam	.proc
   412 A285 AE 9D 04			ldx	vars.param
   413 A288 F0 24		chkp	beq	makeentry.derr
   414 A28A 68				pla	
   415 A28B 68				pla	
   416 A28C 4C 63 B3			jmp	getnext
   417 					.endp
   418
   419 				;=========================
   420 				;	MakeEntry()
   421 				;	-----------
   422 A28F			makeentry .proc
   423 A28F A5 D3			lda	nxttoken
   424 A291 C9 88			cmp	#undec
   425 A293 F0 1E			beq	??me1
   426 A295 B0 0C			bcs	??mev		; var of some kind
   427
   428 A297 C9 27			cmp	#tokens.recordid
   429 A299 F0 08			beq	??mev
   430
   431 A29B C9 70			cmp	#tokens.typet
   432 A29D 90 E6			bcc	chkparam
   433 A29F C9 7F			cmp	#tokens.eofid
   434 A2A1 B0 E2			bcs	chkparam
   435
   436 A2A3 A5 B8		??mev	lda	qglobal
   437 A2A5 F0 E1			beq	chkparam.chkp
   438 A2A7 20 4B B8			jsr	mainbnk.gnlocal
   439 A2AA C9 88			cmp	#undec
   440 A2AC F0 03			beq	??me0
   441 A2AE 4C C6 A1		derr	jmp	dclerr
   442
   443 A2B1 85 D3		??me0	sta	nxttoken
   444 A2B3 A9 00		??me1	lda	#0
   445 A2B5 20 67 B7			jsr	prop.nxtprop
   446 A2B8 38				sec	
   447 A2B9 A9 68			lda	#tokens.vart-tokens.charid
   448 A2BB 6D 99 04			adc	vars.type
   449 A2BE 91 88			sta	(props),y	; type
   450 A2C0 29 07			and	#7
   451 A2C2 AA				tax	
   452 A2C3 BD 8B AF			lda	vartype-1,x
   453 A2C6 85 8A			sta	op
   454
   455 A2C8 C8				iny	
   456 A2C9 20 E0 B6			jsr	getcdoff
   457 A2CC 20 FE A2			jsr	storprops
   458 A2CF 4C 63 B3			jmp	getnext
   459 					.endp
   460
   461
   462 				;=====================
   463 				;	IdEq()
   464 				;	------
   465 A2D2			ideq	.proc
   466 A2D2 20 63 B3			jsr	getnext
   467 A2D5 AE 9D 04			ldx	vars.param
   468 A2D8 D0 57			bne	params.perr
   469 A2DA 4C F7 B5			jmp	mnum
   470 					.endp
   471
   472
   473 				;	GetArSz()
   474 				;	---------
   475 A2DD			getarsz	.proc
   476 A2DD 20 D2 A2			jsr	ideq
   477 A2E0 84 A0			sty	arg0		; Y should = 0
   478 A2E2 84 A1			sty	arg1
   479 A2E4 A4 84			ldy	afcur		; #elements * element size
   480 A2E6 18			??gas	clc	
   481 A2E7 A5 A0			lda	arg0
   482 A2E9 65 86			adc	afsize
   483 A2EB 85 A0			sta	arg0
   484 A2ED A5 A1			lda	arg1
   485 A2EF 65 87			adc	afsize+1
   486 A2F1 85 A1			sta	arg1
   487 A2F3 88				dey	
   488 A2F4 D0 F0			bne	??gas
   489 A2F6 AA				tax	
   490 A2F7 A5 A0			lda	arg0
   491 A2F9 A0 02			ldy	#2
   492 A2FB 4C ED B6			jmp	storevar
   493 					.endp
   494
   495
   496 				;	StorProps(low, high, index)
   497 				;	---------------------------
   498 A2FE			storprops .proc	
   499 A2FE 91 88			sta	(props),y
   500 A300 8A				txa	
   501 A301 C8				iny	
   502 A302 91 88			sta	(props),y
   503 A304 60				rts	
   504 					.endp
   505
   506
   507 				;ChkNext .proc ; ChkNext()
   508 				; LDA nxtToken
   509 				; CMP #undec
   510 				; BNE ??ChkN
   511 				; JSR GNlocal
   512 				;:ChkN JMP GetNext
   513
   514
   515 				;	Params()
   516 				;	--------
   517 A305			params	.proc
   518 A305 A0 00			ldy	#0
   519 A307 B1 88			lda	(props),y	; get var type
   520 A309 48				pha	
   521 A30A A9 03			lda	#3
   522 A30C 20 75 B7			jsr	prop.cprop
   523 A30F C9 08			cmp	#8
   524 A311 B0 1E			bcs	perr
   525 A313 69 01			adc	#1
   526 A315 91 88			sta	(props),y
   527 A317 A8				tay	
   528
   529 							; see if time to update gbase
   530 A318 A6 D3			ldx	nxttoken
   531 A31A E0 18			cpx	#tokens.rparen
   532 A31C D0 0C			bne	??p1
   533 							; see AMPL.SEG
   534 A31E 18				clc	
   535 A31F 6D 97 04			adc	vars.gbase
   536 A322 8D 97 04			sta	vars.gbase
   537 A325 90 03			bcc	??p1
   538 A327 EE 98 04			inc	vars.gbase+1
   539
   540 A32A 68			??p1	pla	
   541 A32B 30 07			bmi	??par1
   542 A32D C9 78			cmp	#tokens.typet+8
   543 A32F F0 07			beq	??par2
   544
   545 A331 4C 0C BB		perr	jmp	segment.argerr
   546
   547 				;:Par1 CMP #varT+realT
   548 				; BEQ PErr
   549
   550 A334 C9 8B		??par1	cmp	#tokens.vart+types.intt
   551 A336 90 05			bcc	??par3		; one byte arg
   552 								; two byte arg
   553 A338 29 1F		??par2	and	#$1f
   554 A33A EE C2 04			inc	vars.argbytes
   555
   556 A33D 29 9F		??par3	and	#$9f
   557 A33F EE C2 04			inc	vars.argbytes
   558 A342 91 88			sta	(props),y
   559 A344 60				rts	
   560 					.endp
   561
   562 A345			varsize	.local
   563 A345 01 01 02 02 02 06		.byte	1,1,2,2,2,6
   564 					.endl
   565
   566 				;====================================
   567 				;	Statement processing
   568 				;====================================
   569
   570 				; <stmt list> ??:= <stmt list> <stmt> | <stmt>
   571 				; <stmt> ??:= <assign> |
   572 				;            <array assign> |
   573 				;            <if> |
   574 				;            <for> |
   575 				;            <while> |
   576 				;            <do> |
   577 				;            <call> |
   578 				;            <return> |
   579 				;            EXIT
   580
   581 A34B			stmtlist .proc	
   582 A34B 20 94 A8			jsr	clrtemps
   583 A34E 85 8A			sta	op
   584 A350 20 F8 04			jsr	smtend
   585
   586 A353 C9 5B			cmp	#tokens.lbrack
   587 A355 D0 23			bne	??sl5
   588
   589 							; machine qcode block
   590 A357 20 C2 BD			jsr	trashy
   591 A35A A6 D3		??sl1	ldx	nxttoken
   592 A35C E0 5D			cpx	#tokens.rbrack
   593 A35E F0 14			beq	??sl4
   594 A360 20 F7 B5			jsr	mnum
   595 A363 E0 00			cpx	#0
   596 A365 F0 05			beq	??sl2
   597 A367 20 A5 BF			jsr	push2		; 2 byte number
   598 A36A B0 03			bcs	??sl3		; unconditional branch
   599
   600 A36C 20 80 BF		??sl2	jsr	push1		; single byte
   601 A36F 20 63 B3		??sl3	jsr	getnext
   602 A372 D0 E6			bne	??sl1		; unconditional branch
   603
   604 A374 20 63 B3		??sl4	jsr	getnext
   605 A377 4C 8F A4			jmp	nxtstmt
   606
   607 A37A A6 D3		??sl5	ldx	nxttoken
   608 A37C C9 89			cmp	#tokens.vart+types.chart
   609 A37E 90 0D			bcc	??sl6
   610 A380 C9 C0			cmp	#tokens.funct
   611 A382 90 36			bcc	assign
   612 								; routine reference
   613 A384 E0 19			cpx	#tokens.lparen
   614 A386 F0 29			beq	call
   615 A388 20 AA AA			jsr	procref
   616 A38B D0 31			bne	assign.ass0	; unconditional branch
   617
   618 A38D C9 88		??sl6	cmp	#undec
   619 A38F D0 05			bne	??sl7
   620 A391 20 2E B8			jsr	mainbnk.getalias
   621 A394 D0 E4			bne	??sl5		; unconditional branch
   622
   623 A396 C9 70		??sl7	cmp	#tokens.typet
   624 A398 D0 06			bne	??sl8
   625 A39A 20 6E AA			jsr	etype
   626 A39D 4C 0A A4			jmp	arassign.arass1
   627
   628 A3A0 C9 78		??sl8	cmp	#tokens.typet+8
   629 A3A2 D0 06			bne	??sl9
   630 A3A4 20 87 AA			jsr	etypea
   631 A3A7 4C 0A A4			jmp	arassign.arass1
   632
   633 A3AA A2 9F		??sl9	ldx	#<stmtlst
   634 A3AC A0 A8			ldy	#>stmtlst
   635 A3AE 4C F4 B6			jmp	lookup
   636 					.endp
   637
   638 				; <call> ??:= <.proc var>((<arglist>))
   639 				; <.proc var> ??:= <id>
   640 				; <arglist> ??:= <arglist> , <exp> | <exp>
   641
   642 A3B1			call	.proc	
   643 A3B1 20 DF BB			jsr	pf.pf_
   644 A3B4 20 14 AB			jsr	popst
   645 A3B7 4C 8F A4			jmp	nxtstmt
   646 					.endp
   647
   648 				; <assign> ??:= <id> = <exp>
   649
   650 A3BA			assign	.proc	
   651 A3BA C9 90			cmp	#tokens.arrayt
   652 A3BC B0 49			bcs	arassign
   653 A3BE 20 24 AB		ass0	jsr	pushnext
   654 A3C1 49 07		ass1	eor	#tokens.equalid
   655 A3C3 D0 3D			bne	asserr
   656 A3C5 20 1C AB			jsr	pushop		; push 0 on op stack
   657 A3C8 20 63 B3			jsr	getnext
   658 A3CB 85 8A			sta	op
   659 A3CD C9 07			cmp	#tokens.equalid
   660 A3CF D0 28			bne	??ass2
   661 A3D1 A9 00			lda	#0
   662 A3D3 85 8A			sta	op
   663 A3D5 20 B8 AA			jsr	copyst
   664 								; check for temps
   665 A3D8 C8				iny	
   666 A3D9 29 F8			and	#$f8
   667 A3DB C9 98			cmp	#tokens.arrayt+8
   668 A3DD D0 04			bne	??a1a
   669 A3DF A0 03			ldy	#3
   670 A3E1 B1 B9			lda	(stack),y
   671 A3E3 29 20		??a1a	and	#$20
   672 A3E5 F0 0F			beq	??a1b
   673 A3E7 C8				iny	
   674 A3E8 B1 B9			lda	(stack),y
   675 A3EA AA				tax	
   676 								; incr temps
   677 A3EB E0 A0			cpx	#args		;
   678 A3ED 90 07			bcc	??a1b		; are these 4 instr.
   679 A3EF E0 B0			cpx	#args+16	; needed?
   680 A3F1 B0 03			bcs	??a1b		;
   681 A3F3 FE 50 05			inc	temps-args,x
   682 A3F6 20 63 B3		??a1b	jsr	getnext
   683 A3F9 20 C3 A8		??ass2	jsr	exp.exp1
   684 A3FC 20 FF AB			jsr	cgassign
   685 A3FF 4C 4B A3			jmp	stmtlist
   686 					.endp
   687
   688 A402			asserr	.proc
   689 A402 A0 0A			ldy	#errors.asser
   690 A404 4C 83 B8			jmp	mainbnk.splerr
   691 					.endp
   692
   693 				; <array assign> ??:= <id> ( <exp> ) = <exp>
   694
   695 A407			arassign	.proc	
   696 A407 20 BD BC			jsr	arrref
   697 A40A A0 00		arass1	ldy	#0
   698 A40C B1 B9			lda	(stack),y
   699 A40E 10 04			bpl	??ara1		; record element
   700 A410 C9 88			cmp	#tokens.vart
   701 A412 90 EE			bcc	asserr		; const
   702 A414 20 63 B3		??ara1	jsr	getnext
   703 A417 D0 A8			bne	assign.ass1		; unconditional branch
   704 					.endp
   705
   706 				; <if> ??:= IF <exp> THEN <stmt list
   707 				;          (ELSE <stmt list>) FI
   708
   709 A419			ifstmt	.proc	
   710 A419 A9 07			lda	#7
   711 A41B 20 46 A8			jsr	getframe
   712
   713 A41E A0 05			ldy	#5
   714 A420 A9 00			lda	#0
   715 A422 91 BB			sta	(frame),y
   716
   717 A424 20 94 A7		??if	jsr	condexp
   718 A427 C9 60			cmp	#tokens.thenid
   719 A429 D0 77			bne	thnerr
   720 								; save current Y
   721 A42B AD A0 04			lda	vars.cury
   722 A42E A0 06			ldy	#6
   723 A430 91 BB			sta	(frame),y
   724
   725 A432 20 8F A4			jsr	nxtstmt
   726
   727 								; restore Y
   728 A435 AA				tax	
   729 A436 A0 06			ldy	#6
   730 A438 B1 BB			lda	(frame),y
   731 A43A 8D A0 04			sta	vars.cury
   732 A43D 8A				txa	
   733
   734 A43E C9 6A			cmp	#tokens.elseif
   735 A440 D0 1A			bne	??else
   736 A442 A0 04			ldy	#4
   737 A444 20 F7 A7			jsr	frameadr.fadr1
   738 A447 A0 04			ldy	#4
   739 A449 20 05 A8			jsr	framecd.fcd1
   740 A44C A6 A4			ldx	arg4
   741 A44E A4 A5			ldy	arg5
   742 A450 20 41 A8			jsr	pushjmp
   743 A453 20 F5 A7			jsr	frameadr
   744 A456 20 13 A8			jsr	filljmp.fjmp1
   745 A459 4C 24 A4			jmp	??if
   746
   747 A45C C9 61		??else	cmp	#tokens.elseid
   748 A45E D0 11			bne	??fi
   749 A460 20 F5 A7			jsr	frameadr
   750 A463 20 03 A8			jsr	framecd
   751 A466 A0 00			ldy	#0		; flag as end of list
   752 A468 20 41 A8			jsr	pushjmp
   753 A46B 20 13 A8			jsr	filljmp.fjmp1
   754 A46E 20 8F A4			jsr	nxtstmt
   755
   756 A471 A0 0D		??fi	ldy	#errors.fier
   757 A473 C9 63			cmp	#tokens.fi
   758 A475 D0 3B			bne	fierr
   759 A477 A0 04			ldy	#4
   760 A479 20 F7 A7			jsr	frameadr.fadr1
   761 A47C F0 03			beq	if1		; if no ELSEIF
   762 A47E 20 13 A8			jsr	filljmp.fjmp1
   763 A481 20 C2 BD		if1	jsr	trashy
   764 A484 20 F5 A7			jsr	frameadr
   765 A487 F0 03			beq	recret		; in case of DO loop
   766 A489 20 13 A8			jsr	filljmp.fjmp1
   767 					.endp
   768
   769 				;	RecRet() pops stack and returns
   770 				;	-------------------------------
   771 A48C			recret	.proc	
   772 A48C 20 95 A4			jsr	freeframe
   773 A48F				m_assert_next nxtstmt	; falls into nxtstmt
Macro: M_ASSERT_NEXT [Source: ACTION.DEF.asm]
Source: COMPILER.asm
   774 					.endp
   775
   776 A48F			nxtstmt	.proc
   777 A48F 20 63 B3			jsr	getnext
   778 A492 4C 4B A3			jmp	stmtlist
   779 					.endp
   780
   781
   782 				;	pops stack
   783 				;	----------
   784 A495			freeframe .proc	
   785 A495 A0 00			ldy	#0
   786 A497 B1 BB			lda	(frame),y
   787 A499 AA				tax	
   788 A49A C8				iny	
   789 A49B B1 BB			lda	(frame),y
   790 A49D 86 BB			stx	frame
   791 A49F 85 BC			sta	frame+1
   792 A4A1 60				rts	
   793 					.endp
   794
   795 A4A2 A0 0C		thnerr	ldy	#errors.thener
   796 A4A4 4C 83 B8		sterr	jmp	mainbnk.splerr
   797
   798
   799 				; <do> ??:= DO <stmt list> (UNTIL <exp>) OD
   800
   801 A4A7			dostmt	.proc	
   802 A4A7 20 50 A7			jsr	doinit
   803 A4AA A9 00			lda	#0
   804 A4AC A0 03			ldy	#3
   805 A4AE 91 BB			sta	(frame),y
   806 A4B0 D0 13			bne	whstmt.wh1	; unconditional branch
   807 					.endp
   808
   809 A4B2			fierr	.proc
   810 A4B2 C9 88			cmp	#undec
   811 A4B4 D0 EE			bne	sterr
   812 A4B6 4C A2 B6			jmp	mnum.varerr
   813 					.endp
   814
   815 				; <while> ??:= WHILE <exp> <do>
   816
   817 A4B9			whstmt	.proc	
   818 A4B9 20 50 A7			jsr	doinit
   819 A4BC 20 94 A7			jsr	condexp
   820
   821 A4BF A0 0F			ldy	#errors.doer
   822 A4C1 C9 62			cmp	#tokens.doid
   823 A4C3 D0 DF			bne	sterr
   824
   825 A4C5 20 8F A4		wh1	jsr	nxtstmt
   826
   827 A4C8 C9 58		wh2	cmp	#tokens.untilid
   828 A4CA D0 05			bne	??wh3
   829 A4CC 20 94 A7			jsr	condexp
   830 A4CF D0 0A			bne	??wh4		; unconditional branch
   831
   832 A4D1 A0 04		??wh3	ldy	#4
   833 A4D3 20 F7 A7			jsr	frameadr.fadr1
   834 A4D6 20 41 A8			jsr	pushjmp
   835 A4D9 A5 C2			lda	token
   836
   837 A4DB A0 13		??wh4	ldy	#errors.oder
   838 A4DD C9 64			cmp	#tokens.odid
   839 A4DF D0 D1			bne	fierr
   840
   841 A4E1 A0 06			ldy	#6
   842 A4E3 20 F7 A7			jsr	frameadr.fadr1
   843 A4E6 86 92			stx	whaddr
   844 A4E8 84 93			sty	whaddr+1
   845 A4EA 4C 81 A4			jmp	ifstmt.if1
   846 					.endp
   847
   848
   849 				;	EXITstmt()
   850 				;	----------
   851 A4ED			exitstmt .proc
   852 A4ED A0 19			ldy	#errors.exiter
   853 A4EF A6 93			ldx	whaddr+1
   854 A4F1 F0 B1			beq	sterr
   855
   856 A4F3 A0 02			ldy	#2		; get pointer to EXIT list
   857 A4F5 B1 92			lda	(whaddr),y
   858 A4F7 AA				tax	
   859 A4F8 C8				iny	
   860 A4F9 B1 92			lda	(whaddr),y
   861 A4FB 48				pha	
   862
   863 A4FC A5 0F			lda	qcode+1		; link in JMP for EXIT
   864 A4FE 91 92			sta	(whaddr),y
   865 A500 A5 0E			lda	qcode
   866 A502 88				dey	
   867 A503 91 92			sta	(whaddr),y
   868
   869 A505 68				pla	
   870 A506 A8				tay	
   871 A507 20 41 A8			jsr	pushjmp
   872 A50A 4C 8F A4			jmp	nxtstmt
   873 					.endp
   874
   875
   876 				; <for> ??:= FOR <id> = <exp> TO <exp>
   877 				;             (STEP <exp>) <do>
   878
   879 A50D A0 18		forerr	ldy	#errors.forer
   880 A50F D0 A1			bne	fierr
   881
   882
   883 A511			forstmt	.proc	
   884 A511 A9 17			lda	#23
   885 A513 20 46 A8			jsr	getframe
   886
   887 A516 20 D4 A7			jsr	whadr
   888 								; make sure simple var for index
   889 A519 20 63 B3			jsr	getnext
   890 A51C C9 89			cmp	#tokens.vart+types.chart
   891 A51E 90 ED			bcc	forerr
   892 A520 C9 90			cmp	#tokens.arrayt
   893 A522 90 08			bcc	??fs1
   894 A524 C9 96			cmp	#tokens.arrayt+types.realt
   895 A526 B0 E5			bcs	forerr
   896 A528 A9 8C			lda	#tokens.vart+types.cardt
   897 A52A 85 C2			sta	token
   898 								; get initial value
   899 A52C A0 08		??fs1	ldy	#8
   900 A52E 91 BB			sta	(frame),y
   901 A530 C8				iny	
   902 A531 A5 C0			lda	addr
   903 A533 A6 C1			ldx	addr+1
   904 A535 20 09 A8			jsr	framecd.fcd2
   905 A538 20 24 AB			jsr	pushnext
   906 A53B C9 07			cmp	#tokens.equalid
   907 A53D D0 CE			bne	forerr
   908 A53F 20 B4 A8			jsr	getexp
   909 A542 20 FF AB			jsr	cgassign
   910 								; set default STEP size
   911 A545 A5 C2			lda	token
   912 A547 C9 65			cmp	#tokens.toid
   913 A549 D0 C2		??f1	bne	forerr
   914 A54B A9 00			lda	#0
   915 A54D A2 09			ldx	#9
   916 A54F A0 0C			ldy	#12
   917 A551 91 BB		??fz	sta	(frame),y
   918 A553 C8				iny	
   919 A554 CA				dex	
   920 A555 D0 FA			bne	??fz
   921
   922 A557 A0 08			ldy	#8
   923 A559 20 41 A7			jsr	fstk
   924 A55C A5 C2			lda	token
   925 A55E 29 07			and	#7
   926 A560 09 80			ora	#tokens.constt
   927 A562 A2 01			ldx	#1
   928 A564 A0 0B			ldy	#11
   929 A566 20 09 A8			jsr	framecd.fcd2
   930 								; get ending value
   931 A569 A9 10			lda	#16
   932 A56B 20 79 A6			jsr	forexp
   933 								; get step value
   934 A56E A5 C2			lda	token
   935 A570 C9 66			cmp	#tokens.stepid
   936 A572 D0 07			bne	??fnostep
   937 A574 A9 0B			lda	#11
   938 A576 20 79 A6			jsr	forexp
   939 A579 A5 C2			lda	token
   940
   941 A57B			??fnostep
   942 A57B C9 62			cmp	#tokens.doid
   943 A57D D0 CA			bne	??f1
   944 								; generate end test
   945 A57F 20 E0 B6			jsr	getcdoff
   946 A582 A0 04			ldy	#4
   947 A584 20 09 A8			jsr	framecd.fcd2
   948 A587 20 C2 BD			jsr	trashy
   949
   950 A58A 20 3E AB			jsr	genops.gops
   951 A58D A0 10			ldy	#16
   952 A58F B1 BB			lda	(frame),y
   953 A591 C9 88			cmp	#tokens.vart
   954 A593 B0 1F			bcs	??f3		; temp variable
   955 								; constant
   956 A595 C8				iny	
   957 A596 B1 BB			lda	(frame),y
   958 A598 AA				tax	
   959 A599 A9 A9			lda	#opcode.lda_imm
   960 A59B 20 A5 BF			jsr	push2		; LDA #low
   961 A59E A9 C1			lda	#opcode.cmp_izx	; CMP (zp,x)
   962 A5A0 20 97 BE			jsr	op2l
   963 A5A3 A5 A3			lda	arg3
   964 A5A5 F0 33			beq	??fbody
   965 A5A7 A0 12			ldy	#18
   966 A5A9 B1 BB			lda	(frame),y
   967 A5AB AA				tax	
   968 A5AC A9 A9		??f2	lda	#opcode.lda_imm
   969 A5AE 20 A5 BF			jsr	push2		; LDA #high
   970 A5B1 4C D5 A5			jmp	??f4
   971
   972 A5B4 A0 11		??f3	ldy	#17
   973 A5B6 84 A0			sty	arg0
   974 A5B8 A9 AD			lda	#opcode.lda_abs	; LDA abs
   975 A5BA 20 DB A6			jsr	forexp.fexp2
   976 A5BD A9 C1			lda	#opcode.cmp_izx	; CMP (zp,x)
   977 A5BF 20 97 BE			jsr	op2l
   978 A5C2 A5 A3			lda	arg3
   979 A5C4 F0 14			beq	??fbody
   980 A5C6 A2 00			ldx	#0
   981 A5C8 A0 10			ldy	#16
   982 A5CA B1 BB			lda	(frame),y
   983 A5CC C9 8B			cmp	#tokens.vart+types.intt
   984 A5CE 90 DC			bcc	??f2		; only byte var
   985 A5D0 A9 AD			lda	#opcode.lda_abs	; LDA abs
   986 A5D2 20 DB A6			jsr	forexp.fexp2
   987 A5D5 A9 E1		??f4	lda	#$e1		; SBC
   988 A5D7 20 B1 BE			jsr	op2h
   989
   990 A5DA A5 A3		??fbody	lda	arg3
   991 A5DC 6A				ror			; get type
   992 A5DD A9 B0			lda	#$b0		; BCS, CARD
   993 A5DF 90 02			bcc	??f5
   994 A5E1 A9 10			lda	#$10		; BPL, INT
   995 A5E3 20 80 BF		??f5	jsr	push1
   996 A5E6 A0 15			ldy	#21
   997 A5E8 20 05 A8			jsr	framecd.fcd1
   998 A5EB 20 80 BF			jsr	push1
   999 A5EE 20 14 AB			jsr	popst
  1000
  1001 A5F1 20 03 A8			jsr	framecd
  1002 A5F4 A0 00			ldy	#0
  1003 A5F6 20 41 A8			jsr	pushjmp
  1004 								; save space for vars
  1005 A5F9 A0 10			ldy	#16
  1006 A5FB 20 13 A7			jsr	fmem
  1007 A5FE A0 0B			ldy	#11
  1008 A600 20 13 A7			jsr	fmem
  1009 								; handle symtab
  1010 A603 A0 0B			ldy	#11
  1011 A605 B1 BB			lda	(frame),y
  1012 A607 C9 88			cmp	#tokens.vart
  1013 A609 90 12			bcc	??f6
  1014 A60B A5 BD			lda	symtab
  1015 A60D A6 BE			ldx	symtab+1
  1016 A60F C8				iny	
  1017 A610 20 09 A8			jsr	framecd.fcd2
  1018 A613 A9 00			lda	#0
  1019 A615 A8				tay	
  1020 A616 91 BD			sta	(symtab),y
  1021 A618 A9 04			lda	#4
  1022 A61A 20 39 B7			jsr	stincr
  1023 								; patch branch
  1024 A61D A0 15		??f6	ldy	#21
  1025 A61F 20 F7 A7			jsr	frameadr.fadr1
  1026 A622 20 8A A8			jsr	comprel
  1027 								; handle stmt list
  1028 A625 20 8F A4			jsr	nxtstmt
  1029 								; handle incr
  1030 A628 48				pha			; save token
  1031 A629 A0 08			ldy	#8
  1032 A62B 20 41 A7			jsr	fstk
  1033 A62E 20 B8 AA			jsr	copyst
  1034 A631 A0 0B			ldy	#11
  1035 A633 20 41 A7			jsr	fstk
  1036 A636 A9 01			lda	#tokens.plusid
  1037 A638 20 CB AB			jsr	cgplus
  1038 A63B A5 A5			lda	arg5
  1039 A63D F0 03			beq	??f7
  1040 A63F 20 E7 AC			jsr	chstkeq		; see if INC
  1041 A642 48			??f7	pha	
  1042 A643 20 FF AB			jsr	cgassign
  1043 A646 68				pla	
  1044 A647 F0 2A			beq	??f8		; not INC
  1045 								; see if we can branch to top of loop
  1046 A649 68				pla	
  1047 A64A C9 58			cmp	#tokens.untilid
  1048 A64C F0 26			beq	??f9		; can't go to top of loop
  1049 A64E 48				pha	
  1050
  1051 A64F 18				clc	
  1052 A650 A0 04			ldy	#4
  1053 A652 B1 BB			lda	(frame),y
  1054 A654 ED 6E 05			sbc	stkbase-9	; see CGPlus
  1055 A657 10 1A			bpl	??f8
  1056 A659 AA				tax	
  1057 A65A C8				iny	
  1058 A65B B1 BB			lda	(frame),y
  1059 A65D ED 6F 05			sbc	stkbase-8
  1060 A660 C9 FF			cmp	#$ff
  1061 A662 D0 0F			bne	??f8		; yes, branch to top
  1062 A664 AD 6E 05			lda	stkbase-9
  1063 A667 85 A0			sta	arg0
  1064 A669 AD 6F 05			lda	stkbase-8
  1065 A66C 85 A1			sta	arg1
  1066 A66E A0 00			ldy	#0
  1067 A670 8A				txa	
  1068 A671 91 A0			sta	(arg0),y
  1069 A673 68			??f8	pla	
  1070 A674 85 C2		??f9	sta	token
  1071 A676 4C C8 A4			jmp	whstmt.wh2
  1072 					.endp
  1073
  1074 A679			forexp	.proc	
  1075 A679 48				pha	
  1076 A67A 20 B4 A8			jsr	getexp
  1077 A67D 20 3E AB			jsr	genops.gops
  1078 A680 68				pla	
  1079 A681 85 A0			sta	arg0
  1080 A683 20 89 A6			jsr	??fe0
  1081 A686 4C 14 AB			jmp	popst
  1082
  1083 A689 A5 A1		??fe0	lda	arg1
  1084 A68B C9 88			cmp	#tokens.vart		; see if const
  1085 A68D B0 13			bcs	??fe1
  1086 								; constant
  1087 A68F A0 0B			ldy	#11
  1088 A691 B1 BB			lda	(frame),y
  1089 A693 A4 A0			ldy	arg0
  1090 A695 91 BB			sta	(frame),y
  1091 A697 A0 02			ldy	#2
  1092 A699 20 F6 BE			jsr	loadi
  1093 A69C A4 A0			ldy	arg0
  1094 A69E C8				iny	
  1095 A69F 4C 09 A8			jmp	framecd.fcd2
  1096
  1097 A6A2 A0 08		??fe1	ldy	#8
  1098 A6A4 B1 BB			lda	(frame),y
  1099 A6A6 29 07			and	#7
  1100 A6A8 C9 03			cmp	#types.intt
  1101 A6AA 30 04			bmi	??fe2
  1102 A6AC A5 A1			lda	arg1
  1103 A6AE 29 07			and	#7
  1104 A6B0 09 88		??fe2	ora	#tokens.vart
  1105 A6B2 A0 01			ldy	#1
  1106 A6B4 91 BD			sta	(symtab),y
  1107 A6B6 85 A2			sta	arg2
  1108 A6B8 A4 A0			ldy	arg0
  1109 A6BA 91 BB			sta	(frame),y
  1110 A6BC E6 A0			inc	arg0
  1111
  1112 A6BE A5 A1			lda	arg1
  1113 A6C0 2C C1 BE			bit	arrmode		; array?
  1114 A6C3 D0 05			bne	??fevar		; yes
  1115 A6C5 2C C3 BE			bit	tempmode	; temp?
  1116 A6C8 D0 28			bne	??ftemp		; yes
  1117 								; var of some kind
  1118 A6CA 20 95 BE		??fevar	jsr	load2l
  1119 A6CD 20 D9 A6			jsr	fexp1
  1120 A6D0 A5 A2			lda	arg2
  1121 A6D2 C9 8B			cmp	#tokens.vart+types.intt	; see if byte
  1122 A6D4 90 1B			bcc	??fe3
  1123 A6D6 20 AF BE			jsr	load2h
  1124 A6D9 A9 8D		fexp1	lda	#$8d		; STA data16
  1125 A6DB 48			fexp2	pha	
  1126 A6DC A4 A0			ldy	arg0
  1127 A6DE 20 F7 A7			jsr	frameadr.fadr1
  1128 A6E1 A4 A0			ldy	arg0
  1129 A6E3 20 05 A8			jsr	framecd.fcd1
  1130 A6E6 C8				iny	
  1131 A6E7 84 A0			sty	arg0
  1132 A6E9 68				pla	
  1133 A6EA A6 A4			ldx	arg4
  1134 A6EC A4 A5			ldy	arg5
  1135 A6EE 4C B7 BF			jmp	push3
  1136
  1137 A6F1 60			??fe3	rts	
  1138
  1139 A6F2 A0 04		??ftemp	ldy	#4
  1140 A6F4 20 F6 BE			jsr	loadi
  1141 A6F7 A0 01			ldy	#1
  1142 A6F9 20 CD BF			jsr	addcdsp
  1143 A6FC A0 03			ldy	#3
  1144 A6FE A9 00			lda	#0
  1145 A700 20 0D A7			jsr	??ft1
  1146 A703 A5 A2			lda	arg2
  1147 A705 C9 8B			cmp	#tokens.vart+types.intt	; see if byte
  1148 A707 90 E8			bcc	??fe3
  1149 A709 A0 05			ldy	#5
  1150 A70B A9 01			lda	#1
  1151 A70D 20 03 BF		??ft1	jsr	loadcd
  1152 A710 4C D9 A6			jmp	fexp1
  1153 					.end
  1154
  1155 A713			fmem	.proc
  1156 A713 B1 BB			lda	(frame),y
  1157 A715 C9 88			cmp	#tokens.vart
  1158 A717 90 D8			bcc	forexp.??fe3		; const
  1159 A719 84 A2			sty	arg2
  1160 A71B 20 E0 B6			jsr	getcdoff	; save address for step
  1161 A71E A0 02			ldy	#2
  1162 A720 91 BD			sta	(symtab),y
  1163 A722 8A				txa	
  1164 A723 C8				iny	
  1165 A724 91 BD			sta	(symtab),y
  1166 A726 A4 A2			ldy	arg2
  1167 A728 20 35 A7			jsr	??fm1
  1168 A72B A4 A2			ldy	arg2
  1169 A72D B1 BB			lda	(frame),y
  1170 A72F C9 8B			cmp	#tokens.vart+types.intt
  1171 A731 90 BE			bcc	forexp.??fe3		; byte only
  1172 A733 C8				iny	
  1173 A734 C8				iny	
  1174 A735 C8			??fm1	iny	
  1175 A736 20 F7 A7			jsr	frameadr.fadr1
  1176 A739 20 13 A8			jsr	filljmp.fjmp1
  1177 A73C A9 01			lda	#1
  1178 A73E 4C 4D B7			jmp	codeincr
  1179 					.endp
  1180
  1181 A741			fstk	.proc
  1182 A741 B1 BB			lda	(frame),y
  1183 A743 85 C2			sta	token
  1184 A745 C8				iny	
  1185 A746 20 F7 A7			jsr	frameadr.fadr1
  1186 A749 86 C0			stx	addr
  1187 A74B 84 C1			sty	addr+1
  1188 A74D 4C 35 AA			jmp	pushst
  1189 					.endp
  1190
  1191 A750			doinit	.proc	
  1192 A750 A9 08			lda	#8
  1193 A752 20 46 A8			jsr	getframe
  1194 A755 20 D4 A7			jsr	whadr
  1195 A758 20 E0 B6			jsr	getcdoff
  1196 A75B A0 04			ldy	#4
  1197 A75D 20 09 A8			jsr	framecd.fcd2
  1198 A760 4C C2 BD			jmp	trashy
  1199 					.endp
  1200
  1201
  1202 				; <return> ??:= RETURN ((<exp>))
  1203
  1204 A763			retstmt	.proc	
  1205 A763 A9 00			lda	#0
  1206 A765 20 75 B7			jsr	prop.cprop
  1207 A768 29 07			and	#7
  1208 A76A F0 1B			beq	??r1
  1209 A76C 09 A8			ora	#tokens.tempt
  1210 A76E A8				tay	
  1211 A76F A9 A0			lda	#args
  1212 A771 20 2F AA			jsr	storst
  1213 A774 A6 D3			ldx	nxttoken
  1214 A776 E0 19			cpx	#tokens.lparen
  1215 A778 D0 15			bne	reterr
  1216 A77A 20 63 B3			jsr	getnext
  1217 A77D 20 B4 A8			jsr	getexp
  1218 A780 C9 18			cmp	#tokens.rparen
  1219 A782 D0 0B			bne	reterr
  1220 A784 20 FF AB			jsr	cgassign
  1221 A787 A9 60		??r1	lda	#opcode.rts_
  1222 A789 20 80 BF			jsr	push1
  1223 A78C 4C 8F A4			jmp	nxtstmt
  1224
  1225 A78F A0 1C		reterr	ldy	#errors.reter
  1226 A791 4C 83 B8			jmp	mainbnk.splerr
  1227 					.endp
  1228
  1229 A794			condexp	.proc			; CondExp()
  1230 A794 20 B4 A8			jsr	getexp
  1231 A797 48				pha	
  1232 A798 A0 00			ldy	#0
  1233 A79A B1 B9			lda	(stack),y
  1234 A79C C9 48			cmp	#tokens.condt
  1235 A79E F0 08			beq	??cexp1
  1236 								; not boolean
  1237 A7A0 20 2A AA			jsr	zerost
  1238 A7A3 A9 08			lda	#tokens.neid
  1239 A7A5 20 B0 AB			jsr	codegen
  1240
  1241 A7A8 68			??cexp1	pla			; token value
  1242 A7A9 48				pha	
  1243 A7AA C9 64			cmp	#tokens.odid
  1244 A7AC D0 11			bne	??cexp2
  1245 								; until <exp> od
  1246 A7AE A0 01			ldy	#1
  1247 A7B0 20 39 BF			jsr	stkaddr
  1248 A7B3 F0 03			beq	??ce1a		; no JMPs
  1249 								; JMP to JMP to top of loop
  1250 								; yek!, should be improved
  1251 A7B5 20 10 A8			jsr	filljmp		; fill in jmps
  1252
  1253 A7B8 A0 04		??ce1a	ldy	#4
  1254 A7BA 20 F7 A7			jsr	frameadr.fadr1
  1255 A7BD D0 08			bne	??cexp3		; unconditional branch
  1256
  1257 A7BF 20 03 A8		??cexp2	jsr	framecd
  1258 A7C2 A0 01			ldy	#1
  1259 A7C4 20 39 BF			jsr	stkaddr
  1260
  1261 A7C7 20 41 A8		??cexp3	jsr	pushjmp
  1262
  1263 								; fill in branch addresses
  1264 A7CA A0 04			ldy	#4
  1265 A7CC 20 E6 A7			jsr	fillbr
  1266 A7CF 20 14 AB			jsr	popst
  1267 A7D2 68				pla			; get token value
  1268 A7D3 60				rts	
  1269 					.endp
  1270
  1271 A7D4			whadr	.proc	
  1272 A7D4 A5 92			lda	whaddr
  1273 A7D6 A6 93			ldx	whaddr+1
  1274 A7D8 A0 06			ldy	#6
  1275 A7DA 20 09 A8			jsr	framecd.fcd2
  1276 A7DD A5 BB			lda	frame
  1277 A7DF 85 92			sta	whaddr
  1278 A7E1 A5 BC			lda	frame+1
  1279 A7E3 85 93			sta	whaddr+1
  1280 A7E5 60				rts	
  1281 					.endp
  1282
  1283 A7E6			fillbr	.proc			; FillBr(,,offset)
  1284 A7E6 20 6E A8			jsr	setrel
  1285 A7E9 20 74 A8		??fb1	jsr	savrel
  1286 A7EC 20 8A A8			jsr	comprel
  1287 A7EF 20 36 A8			jsr	loadn
  1288 A7F2 D0 F5			bne	??fb1
  1289 A7F4 60				rts	
  1290 					.endp
  1291
  1292 A7F5			frameadr	.proc		; FrameAdr()
  1293 A7F5 A0 02			ldy	#2
  1294 A7F7 B1 BB		fadr1	lda	(frame),y
  1295 A7F9 AA				tax	
  1296 A7FA C8				iny	
  1297 A7FB B1 BB			lda	(frame),y
  1298 A7FD A8				tay	
  1299 A7FE 86 A4		fadr2	stx	arg4
  1300 A800 84 A5			sty	arg5
  1301 A802 60				rts	
  1302 					.endp
  1303
  1304 A803			framecd	.proc			; FrameCd()
  1305 A803 A0 02			ldy	#2
  1306 A805 A5 0E		fcd1	lda	qcode
  1307 A807 A6 0F			ldx	qcode+1
  1308 A809 91 BB		fcd2	sta	(frame),y
  1309 A80B C8				iny	
  1310 A80C 8A				txa	
  1311 A80D 91 BB			sta	(frame),y
  1312 A80F 60				rts	
  1313 					.endp
  1314
  1315 A810			filljmp	.proc			; FillJmp(,addr)
  1316 A810 20 FE A7			jsr	frameadr.fadr2
  1317 A813 20 29 A8		fjmp1	jsr	saven
  1318 A816 20 E0 B6			jsr	getcdoff
  1319 A819 20 22 A8			jsr	save4
  1320 A81C 20 36 A8			jsr	loadn
  1321 A81F D0 F2			bne	fjmp1
  1322 A821 60				rts	
  1323 					.endp
  1324
  1325 A822			save4	.proc			; Save4(value)
  1326 A822 91 A4			sta	(arg4),y
  1327 A824 C8				iny	
  1328 A825 8A				txa	
  1329 A826 91 A4			sta	(arg4),y
  1330 A828 60				rts	
  1331 					.endp
  1332
  1333 A829			saven	.proc			; SaveN()
  1334 A829 A0 01			ldy	#1
  1335 A82B B1 A4			lda	(arg4),y
  1336 A82D 85 A0			sta	arg0
  1337 A82F C8				iny	
  1338 A830 B1 A4			lda	(arg4),y
  1339 A832 85 A1			sta	arg1
  1340 A834 88				dey	
  1341 A835 60				rts	
  1342 					.endp
  1343
  1344 A836			loadn	.proc			; LoadN()
  1345 A836 A5 A0			lda	arg0
  1346 A838 A6 A1			ldx	arg1
  1347 A83A F0 04			beq	??ln2		; is this needed anymore?
  1348 A83C 85 A4		ln1	sta	arg4
  1349 A83E 86 A5			stx	arg5
  1350 A840 60			??ln2	rts	
  1351 					.endp
  1352
  1353 A841			pushjmp	.proc			; PushJMP(, addr)
  1354 A841 A9 4C			lda	#opcode.jmp_abs	; JMP abs
  1355 A843 4C B7 BF			jmp	push3
  1356 					.endp
  1357
  1358 A846			getframe	.proc		; GetFrame(size)
  1359 A846 85 A0			sta	arg0
  1360 A848 A4 BB			ldy	frame
  1361 A84A A6 BC			ldx	frame+1
  1362 A84C 38				sec	
  1363 A84D 98				tya	
  1364 A84E E5 A0			sbc	arg0
  1365 A850 85 BB			sta	frame
  1366 A852 8A				txa	
  1367 A853 E9 00			sbc	#0
  1368 A855 85 BC			sta	frame+1
  1369 A857 A5 BB			lda	frame
  1370 A859 CD A3 04			cmp	vars.sparem
  1371 A85C A5 BC			lda	frame+1
  1372 A85E ED A4 04			sbc	vars.sparem+1
  1373 A861 90 06			bcc	nsterr
  1374 A863 98				tya	
  1375 A864 A0 00			ldy	#0
  1376 A866 4C 09 A8			jmp	framecd.fcd2
  1377
  1378 A869 A0 1A		nsterr	ldy	#errors.nster
  1379 A86B 4C 83 B8			jmp	mainbnk.splerr
  1380 					.endp
  1381
  1382 A86E			setrel	.proc			; SetRel(,,offset)
  1383 A86E 20 F6 BE			jsr	loadi
  1384 A871 4C 3C A8			jmp	loadn.ln1
  1385 					.endp
  1386
  1387 A874			savrel	.proc	
  1388 A874 A0 00			ldy	#0
  1389 A876 A2 00			ldx	#0
  1390 A878 B1 A4			lda	(arg4),y
  1391 A87A F0 0B			beq	??sr2
  1392 A87C 10 01			bpl	??sr1
  1393 A87E CA				dex			; sign extend
  1394 A87F 18			??sr1	clc	
  1395 A880 65 A4			adc	arg4
  1396 A882 85 A0			sta	arg0
  1397 A884 8A				txa	
  1398 A885 65 A5			adc	arg5
  1399 A887 85 A1		??sr2	sta	arg1
  1400 A889 60				rts	
  1401 					.endp
  1402
  1403 A88A			comprel	.proc	
  1404 A88A A5 0E			lda	qcode
  1405 A88C 18				clc			; extra -1 for offset byte
  1406 A88D E5 A4		crel2	sbc	arg4
  1407 A88F A0 00			ldy	#0
  1408 A891 91 A4			sta	(arg4),y
  1409 A893 60				rts	
  1410 					.endp
  1411
  1412 A894			clrtemps	.proc	
  1413 A894 A9 00			lda	#0
  1414 A896 A2 10			ldx	#16
  1415 A898 9D EF 05		??sl0	sta	temps-1,x
  1416 A89B CA				dex	
  1417 A89C D0 FA			bne	??sl0		; free temps
  1418 A89E 60				rts	
  1419 					.endp
  1420
  1421 A89F F8 04		stmtlst	.word	smtend		; not found
  1422 A8A1 14				.byte	20		; #entries*3 - 1
  1423 A8A2 19 A4			.word	ifstmt
  1424 A8A4 50				.byte	tokens.ifid
  1425 A8A5 11 A5			.word	forstmt
  1426 A8A7 54				.byte	tokens.forid
  1427 A8A8 B9 A4			.word	whstmt
  1428 A8AA 51				.byte	tokens.whileid
  1429 A8AB 63 A7			.word	retstmt
  1430 A8AD 52				.byte	tokens.retid
  1431 A8AE A7 A4			.word	dostmt
  1432 A8B0 62				.byte	tokens.doid
  1433 A8B1 ED A4			.word	exitstmt
  1434 A8B3 53				.byte	tokens.exitid
  1435
  1436
  1437 				;=====================================
  1438 				;	Expression processing
  1439 				;=====================================
  1440
  1441 				; <exp> ??:= <exp> XOR <equiv> | <equiv>
  1442 				; <equiv> ??:= <equiv> OR <logical prod> | <logical prod>
  1443 				; <logical prod> ??:= <logical prod> AND <relation> | <relation>
  1444 				; <relation> ??:= <relation> <rel op> <add exp> | <add exp>
  1445 				; <add exp> ??:= <add exp> <add op> <mult exp> | <mult exp>
  1446 				; <mult exp> ??:= <mult exp> <mult op> <factor> | <factor>
  1447 				; <factor> ??:= <unary op> <primary> | <primary>
  1448 				; <primary> ??:= <constant> | <var> | ( <exp> )
  1449
  1450 				; <rel op> ??:= # | = | <high  | < | high  | <= | high =
  1451 				; <add op> ??:= + | -
  1452 				; <mult op> ??:= * | / | LSH | RSH | REM
  1453 				; <unary op> ??:= @ | -
  1454
  1455 				;	GetExp()
  1456 				;	--------
  1457 A8B4			getexp
  1458 					.if	.def ramzap
  1459 					.if	ramzap
  1460 A8B4 EE 92 AF			 inc	cgopscd
  1461 					.else	
  1462 					 nop	
  1463 					 nop	
  1464 					 nop	
  1465 					.endif
  1466 					.endif
  1467
  1468 A8B7 20 63 B3			jsr	getnext
  1469
  1470
  1471 A8BA			exp	.proc	
  1472 A8BA A9 00			lda	#0
  1473 A8BC 20 1C AB			jsr	pushop
  1474 A8BF A5 C2			lda	token		; always non-zero
  1475 A8C1 85 8A			sta	op
  1476
  1477 A8C3 20 D1 04		exp1	jsr	expend
  1478 A8C6 C9 15			cmp	#tokens.scolon
  1479 A8C8 90 69			bcc	??expop
  1480
  1481 A8CA C9 18			cmp	#tokens.rparen
  1482 A8CC D0 0E			bne	??exp2
  1483 A8CE A6 8A			ldx	op
  1484 A8D0 D0 12			bne	eerr
  1485 A8D2 20 CC AA			jsr	rollops
  1486 A8D5 C9 19			cmp	#tokens.lparen
  1487 A8D7 F0 7B			beq	??exp7
  1488 A8D9 A5 C2			lda	token
  1489 A8DB 60				rts	
  1490
  1491 A8DC C9 19		??exp2	cmp	#tokens.lparen
  1492 A8DE D0 07			bne	??exp3
  1493 A8E0 A6 8A			ldx	op
  1494 A8E2 D0 6D			bne	??exp6
  1495
  1496 A8E4 4C 1B AA		eerr	jmp	experr
  1497
  1498 A8E7 A6 8A		??exp3	ldx	op
  1499 A8E9 F0 6F			beq	??exp8
  1500 A8EB A2 00			ldx	#0
  1501 A8ED 86 8A			stx	op
  1502 A8EF C9 1E			cmp	#tokens.quote
  1503 A8F1 F0 7D			beq	??expstr
  1504
  1505 A8F3 A6 D3		??exp3a	ldx	nxttoken
  1506 A8F5 C9 27			cmp	#tokens.recordid
  1507 A8F7 F0 17			beq	??exp3d		; record
  1508 A8F9 C9 70			cmp	#tokens.typet
  1509 A8FB 90 E7			bcc	eerr
  1510 A8FD D0 05			bne	??exp3c
  1511 A8FF 20 6E AA		??exp3b	jsr	etype
  1512 A902 D0 50			bne	??exp7		; unconditional branch
  1513
  1514 A904 C9 78		??exp3c	cmp	#tokens.typet+8
  1515 A906 90 08			bcc	??exp3d		; field
  1516 A908 D0 0A			bne	??exp3e
  1517 A90A 20 87 AA			jsr	etypea
  1518 A90D 4C 54 A9			jmp	??exp7
  1519
  1520 								; record name or field
  1521 A910 E0 17		??exp3d	cpx	#tokens.period
  1522 A912 D0 EB			bne	??exp3b
  1523 								; will generate error if falls through
  1524
  1525 A914 C9 80		??exp3e	cmp	#tokens.constt
  1526 A916 90 CC			bcc	eerr		; missing operand?
  1527 A918 C9 90			cmp	#tokens.arrayt
  1528 A91A B0 0D			bcs	??exp4		; array or func
  1529
  1530 A91C C9 88			cmp	#undec
  1531 A91E F0 44			beq	??expund
  1532 A920 C9 86			cmp	#tokens.constt+types.realt
  1533 A922 F0 C0			beq	eerr		; real constant
  1534
  1535 A924			??expvar
  1536 A924 20 24 AB			jsr	pushnext
  1537 A927 D0 9A			bne	exp1		; unconditional branch
  1538
  1539 A929 C9 C0		??exp4	cmp	#tokens.funct
  1540 A92B B0 3C			bcs	??expproc
  1541
  1542 				;??exparr
  1543 A92D 20 BD BC			jsr	arrref
  1544 A930 4C 54 A9			jmp	??exp7
  1545
  1546 A933 A6 8A		??expop	ldx	op
  1547 A935 F0 0C			beq	??exp5
  1548 A937 C9 12			cmp	#tokens.atid
  1549 A939 F0 08			beq	??exp5
  1550 A93B C9 02			cmp	#tokens.minusid
  1551 A93D D0 A5			bne	eerr
  1552 A93F A9 11			lda	#tokens.uminusid
  1553 A941 85 C2			sta	token
  1554 A943 AA			??exp5	tax	
  1555 A944 BD 29 AB			lda	prec-1,x
  1556 A947 85 8A			sta	op
  1557 A949 20 CC AA			jsr	rollops
  1558 A94C 20 1C AB			jsr	pushop
  1559 A94F A5 C2			lda	token
  1560 A951 20 1C AB		??exp6	jsr	pushop
  1561 A954 20 63 B3		??exp7	jsr	getnext
  1562 A957 4C C3 A8			jmp	exp1
  1563
  1564 A95A 20 CC AA		??exp8	jsr	rollops
  1565 A95D C9 19			cmp	#tokens.lparen
  1566 A95F F0 36			beq	parenerr
  1567 A961 A5 C2			lda	token
  1568 A963 60				rts	
  1569
  1570 A964			??expund
  1571 A964 20 2E B8			jsr	mainbnk.getalias
  1572 A967 D0 8A			bne	??exp3a		; unconditional branch
  1573
  1574 A969			??expproc
  1575 A969 D0 31			bne	??expfunc
  1576 A96B 20 AA AA		??expp1	jsr	procref
  1577 A96E D0 B4			bne	??expvar	; unconditional branch
  1578
  1579 A970			??expstr
  1580 A970 A9 4C			lda	#opcode.jmp_abs	; JMP around string
  1581 A972 20 80 BF			jsr	push1
  1582 A975 20 E0 B6			jsr	getcdoff
  1583 A978 69 03			adc	#3		; includes size byte
  1584 A97A 90 02			bcc	??es1
  1585 A97C E8				 inx	
  1586 A97D 18				 clc	
  1587 A97E A0 00		??es1	ldy	#0
  1588 A980 71 C0			adc	(addr),y	; size
  1589 A982 90 01			bcc	??es2
  1590 A984 E8				 inx	
  1591 A985 20 A5 BF		??es2	jsr	push2
  1592
  1593 A988 20 BC B6			jsr	copystr
  1594 A98B A0 85			ldy	#tokens.constt+types.strt
  1595 A98D 20 2F AA			jsr	storst
  1596 A990 C6 8D			dec	choff
  1597 A992 20 63 B3			jsr	getnext
  1598 A995 D0 BD			bne	??exp7		; unconditional branch
  1599
  1600
  1601 A997			parenerr
  1602 A997 A0 12			ldy	#errors.parer
  1603 A999 4C 83 B8			jmp	mainbnk.splerr
  1604
  1605 								; qcode to handle function ref
  1606 A99C			??expfunc
  1607 A99C C9 C8			cmp	#tokens.funct+8
  1608 A99E F0 CB			beq	??expp1
  1609 A9A0 E0 19			cpx	#tokens.lparen
  1610 A9A2 D0 C7			bne	??expp1
  1611 A9A4 A9 11			lda	#17
  1612 A9A6 20 46 A8			jsr	getframe
  1613
  1614 A9A9 A0 10			ldy	#16
  1615 A9AB A5 8A			lda	op
  1616 A9AD 91 BB			sta	(frame),y
  1617 								; save temps
  1618 A9AF 84 A0			sty	arg0
  1619 A9B1 A9 AF			lda	#args+15
  1620 A9B3 85 A1			sta	arg1
  1621 A9B5 C6 A0		??ef1	dec	arg0
  1622 A9B7 A4 A0			ldy	arg0
  1623 A9B9 B9 F0 05			lda	temps,y
  1624 A9BC 91 BB			sta	(frame),y
  1625 A9BE F0 0B			beq	??ef2
  1626 A9C0 A9 A5			lda	#$a5		; LDA addr
  1627 A9C2 A6 A1			ldx	arg1
  1628 A9C4 A0 48			ldy	#$48		; PHA
  1629 A9C6 20 B7 BF			jsr	push3
  1630 A9C9 A4 A0			ldy	arg0
  1631 A9CB C6 A1		??ef2	dec	arg1
  1632 A9CD C0 02			cpy	#2
  1633 A9CF D0 E4			bne	??ef1
  1634
  1635 A9D1 AD F0 05			lda	temps
  1636 A9D4 D0 45			bne	experr		; nested functions
  1637 A9D6 20 94 A8			jsr	clrtemps
  1638
  1639 A9D9 20 DF BB			jsr	pf.pf_		; call the function
  1640
  1641 								; restore temps
  1642 A9DC A0 01			ldy	#1
  1643 A9DE 8C F0 05			sty	temps		; flag result reg.
  1644 A9E1 84 A0			sty	arg0
  1645 A9E3 A9 A2			lda	#args+2
  1646 A9E5 85 A1			sta	arg1
  1647 A9E7 E6 A0		??ef3	inc	arg0
  1648 A9E9 A4 A0			ldy	arg0
  1649 A9EB B1 BB			lda	(frame),y
  1650 A9ED 99 F0 05			sta	temps,y
  1651 A9F0 F0 0B			beq	??ef4
  1652 A9F2 A9 68			lda	#$68		; PLA
  1653 A9F4 A2 85			ldx	#$85		; STA addr
  1654 A9F6 A4 A1			ldy	arg1
  1655 A9F8 20 B7 BF			jsr	push3
  1656 A9FB A4 A0			ldy	arg0
  1657 A9FD E6 A1		??ef4	inc	arg1
  1658 A9FF C0 0F			cpy	#15
  1659 AA01 D0 E4			bne	??ef3
  1660
  1661 AA03 C8				iny	
  1662 AA04 B1 BB			lda	(frame),y
  1663 AA06 85 8A			sta	op
  1664
  1665 AA08 20 95 A4			jsr	freeframe
  1666
  1667 								; set result type
  1668 AA0B A0 00			ldy	#0
  1669 AA0D B1 B9			lda	(stack),y
  1670 AA0F 29 07			and	#7
  1671 AA11 09 A8			ora	#tokens.tempt
  1672 AA13 A2 A0			ldx	#args
  1673 AA15 20 14 BF			jsr	savecd.savstk
  1674 AA18 4C 54 A9			jmp	??exp7
  1675 					.endp
  1676
  1677 				;:ExpReal LDX vars
  1678 				; LDY vars+1
  1679 				; JSR FST0R
  1680 				; LDA varsOff
  1681 				; LDX varsOff+1
  1682 				; JSR SST1
  1683 				; LDA #6
  1684 				; JSR VarIncr
  1685 				; JMP ??Exp7
  1686
  1687 AA1B A0 11		experr	ldy	#errors.exper
  1688 AA1D 4C 83 B8		eerr1	jmp	mainbnk.splerr
  1689
  1690 AA20			popop	.proc			; PopOp()
  1691 AA20 C6 9A			dec	stackptr
  1692 AA22 30 F7			bmi	experr		; this should never happen
  1693 AA24 A4 9A			ldy	stackptr
  1694 AA26 B9 80 05			lda	opstack,y
  1695 AA29 60				rts	
  1696 					.endp
  1697
  1698 AA2A			zerost	.proc	
  1699 AA2A A9 00			lda	#0
  1700 AA2C AA				tax	
  1701 AA2D A0 82			ldy	#tokens.constt+types.bytet
  1702 					.endp
  1703
  1704 AA2F			storst	.proc			; StorST(addr16,token)
  1705 AA2F 84 C2			sty	token
  1706 AA31 85 C0			sta	addr
  1707 AA33 86 C1			stx	addr+1
  1708 					.endp
  1709
  1710 AA35			pushst	.proc			; PushST()
  1711 AA35 38				sec	
  1712 AA36 A5 B9			lda	stack
  1713 AA38 E9 07			sbc	#7
  1714 AA3A 85 B9			sta	stack
  1715 AA3C 90 DD			bcc	experr
  1716 AA3E A0 00			ldy	#0
  1717 AA40 A5 C2			lda	token
  1718 AA42 91 B9			sta	(stack),y
  1719 AA44 C8				iny	
  1720 AA45 A5 C0			lda	addr
  1721 AA47 A6 C1			ldx	addr+1
  1722 AA49 4C 14 BF			jmp	savecd.savstk
  1723 					.endp
  1724
  1725 AA4C			etypep	.proc	
  1726 AA4C 20 35 AA			jsr	pushst
  1727 AA4F 20 63 B3			jsr	getnext
  1728 AA52 20 63 B3			jsr	getnext
  1729 AA55 A0 00			ldy	#0
  1730 AA57 91 B9			sta	(stack),y
  1731 AA59 AA				tax	
  1732 AA5A 29 F8			and	#$f8
  1733 AA5C A0 1B			ldy	#errors.typer
  1734 AA5E C9 70			cmp	#tokens.typet
  1735 AA60 D0 BB			bne	eerr1
  1736 AA62 8A				txa	
  1737 AA63 29 07			and	#7
  1738 AA65 F0 B6			beq	eerr1
  1739 AA67 85 C2			sta	token
  1740 								; get offset
  1741 AA69 A9 01			lda	#1
  1742 AA6B 4C 7B B7			jmp	prop.getprop
  1743 					.endp
  1744
  1745 AA6E			etype	.proc	
  1746 AA6E E0 17			cpx	#tokens.period
  1747 AA70 F0 03			beq	??e1
  1748 								; record addr, size or field offset
  1749 								; A reg must be nonzero before call
  1750 AA72 4C CF BC			jmp	arrref.arrconst
  1751
  1752 AA75 20 4C AA		??e1	jsr	etypep		; set type
  1753 								; get var address
  1754 AA78 A0 01			ldy	#1
  1755 AA7A 20 4B BF			jsr	stkps
  1756 AA7D 98				tya	
  1757 AA7E A0 02			ldy	#2
  1758 AA80 91 B9			sta	(stack),y
  1759 AA82 88				dey	
  1760 AA83 8A				txa	
  1761 AA84 91 B9			sta	(stack),y
  1762 AA86 60				rts	
  1763 					.endp	
  1764
  1765 AA87			etypea	.proc	
  1766 AA87 E0 17			cpx	#tokens.period
  1767 AA89 F0 03			beq	??e1
  1768 AA8B 4C C7 BC			jmp	arrref.arrvar
  1769
  1770 AA8E 20 4C AA		??e1	jsr	etypep		; set type
  1771 AA91 A8				tay	
  1772 AA92 A5 C2			lda	token
  1773 AA94 48				pha	
  1774 AA95 98				tya	
  1775 AA96 A0 82			ldy	#tokens.constt+types.bytet
  1776 AA98 20 2F AA			jsr	storst
  1777 AA9B A9 92			lda	#tokens.arrayt+types.bytet
  1778 AA9D A0 07			ldy	#7
  1779 AA9F 20 0C BD			jsr	arrref.arra0
  1780 AAA2 A0 00			ldy	#0
  1781 AAA4 68				pla	
  1782 AAA5 09 B0			ora	#$b0		; temp array
  1783 AAA7 91 B9			sta	(stack),y
  1784 AAA9 60				rts	
  1785 					.endp
  1786
  1787 AAAA			procref	.proc	
  1788 AAAA A0 C4			ldy	#tokens.funct+types.cardt	; make sure CARD
  1789 AAAC C9 C8			cmp	#tokens.funct+8
  1790 AAAE 90 05			bcc	??pr1
  1791 AAB0 20 8F B8		stconst	jsr	mainbnk.getargs			; A#0, no arg types
  1792 AAB3 A0 84			ldy	#tokens.constt+types.cardt	; sys .proc
  1793 AAB5 84 C2		??pr1	sty	token
  1794 AAB7 60				rts	
  1795 					.endp
  1796
  1797 AAB8			copyst	.proc			; CopyST()
  1798 AAB8 A5 B9			lda	stack
  1799 AABA A6 BA			ldx	stack+1
  1800 AABC 20 3C A8			jsr	loadn.ln1
  1801
  1802 AABF 20 35 AA			jsr	pushst
  1803
  1804 AAC2 A0 06			ldy	#6
  1805 AAC4 B1 A4		??cst1	lda	(arg4),y
  1806 AAC6 91 B9			sta	(stack),y
  1807 AAC8 88				dey	
  1808 AAC9 10 F9			bpl	??cst1
  1809 AACB 60				rts	
  1810 					.endp
  1811
  1812 AACC			rollops	.proc			; RollOps()
  1813 AACC 20 20 AA			jsr	popop
  1814 AACF F0 42			beq	??rops1
  1815 AAD1 C9 19			cmp	#tokens.lparen
  1816 AAD3 F0 3E			beq	??rops1
  1817 AAD5 AA				tax	
  1818 AAD6 BC 29 AB			ldy	prec-1,x
  1819 AAD9 C4 8A			cpy	op
  1820 AADB 90 36			bcc	??rops1		; prec < op
  1821 								; check for simple add
  1822 AADD A4 8A			ldy	op		; see if end of exp
  1823 AADF D0 2C			bne	??ro2
  1824 AAE1 A4 B9			ldy	stack
  1825 AAE3 C0 62			cpy	#<(stkbase-21)
  1826 AAE5 D0 26			bne	??ro2
  1827 AAE7 E0 01			cpx	#tokens.plusid
  1828 AAE9 F0 08			beq	??ro0
  1829 AAEB E0 10			cpx	#tokens.rshid
  1830 AAED F0 04			beq	??ro0
  1831 AAEF E0 0F			cpx	#tokens.lshid
  1832 AAF1 D0 1A			bne	??ro2
  1833 AAF3 20 20 AA		??ro0	jsr	popop		; see if last op
  1834 AAF6 D0 11			bne	??ro1
  1835 								; check for increament
  1836 								; We know at least this is an
  1837 								; assignment or an array subscript.
  1838 								; If ChStkEq in CGPlus is true then
  1839 								; this is an assignment.
  1840 AAF8 8A				txa	
  1841 AAF9 C9 01			cmp	#tokens.plusid
  1842 AAFB D0 06			bne	??rosh
  1843 AAFD 20 CB AB			jsr	cgplus
  1844 AB00 A9 00			lda	#0
  1845 AB02 60				rts	
  1846
  1847 AB03 20 75 AB		??rosh	jsr	cgsh
  1848 AB06 A9 00			lda	#0
  1849 AB08 60				rts	
  1850
  1851 AB09 20 1C AB		??ro1	jsr	pushop
  1852 AB0C 8A				txa	
  1853 AB0D 20 B0 AB		??ro2	jsr	codegen
  1854 AB10 4C CC AA			jmp	rollops
  1855
  1856 AB13 60			??rops1	rts	
  1857 					.endp
  1858
  1859 AB14			popst	.proc			; PopST()
  1860 AB14 18				clc	
  1861 AB15 A5 B9			lda	stack
  1862 AB17 69 07			adc	#7
  1863 AB19 85 B9			sta	stack
  1864 AB1B 60				rts	
  1865 					.endp
  1866
  1867 AB1C			pushop	.proc			; PushOp(op)
  1868 AB1C A4 9A			ldy	stackptr
  1869 AB1E E6 9A			inc	stackptr
  1870 AB20 99 80 05			sta	opstack,y
  1871 AB23 60				rts	
  1872 					.endp
  1873
  1874 AB24			pushnext .proc		; PushNext()
  1875 AB24 20 35 AA			jsr	pushst
  1876 AB27 4C 63 B3			jmp	getnext
  1877 					.endp
  1878
  1879
  1880 AB2A			prec	.local
  1881 AB2A 05 05 06 06 02 03 + 	.byte	5,5,6,6,2,3,4,4,4,4,4,4
  1882 AB36 06 01 06 06 07 07		.byte	6,1,6,6,7,7
  1883 					.endl
  1884
  1885 				;==============================
  1886 				;	Code generation
  1887 				;==============================
  1888
  1889 AB3C			genops	.proc			; GenOps(op)
  1890 AB3C 85 A0			sta	arg0
  1891 AB3E A0 00		gops	ldy	#0
  1892 AB40 B1 B9			lda	(stack),y
  1893 AB42 85 A1			sta	arg1
  1894 AB44 29 07			and	#7
  1895 AB46 AA				tax	
  1896 AB47 BD 8B AF			lda	vartype-1,x
  1897 AB4A 85 A3			sta	arg3
  1898 AB4C 0A				asl
  1899 AB4D 0A				asl
  1900 AB4E 85 A5			sta	arg5
  1901 AB50 A0 07			ldy	#7
  1902 AB52 B1 B9			lda	(stack),y
  1903 AB54 85 A2			sta	arg2
  1904 AB56 29 07			and	#7
  1905 AB58 AA				tax	
  1906 AB59 BD 8B AF			lda	vartype-1,x
  1907 AB5C 85 A4			sta	arg4
  1908 AB5E 05 A5			ora	arg5
  1909 AB60 AA				tax	
  1910 AB61 BD C5 BE			lda	outtype,x
  1911 AB64 85 A6			sta	arg6		; high bit on for card.
  1912 AB66 29 07			and	#7		; get rid of flag bits
  1913 AB68 AA				tax	
  1914 AB69 09 A8			ora	#tokens.tempt
  1915 AB6B 85 A7			sta	arg7
  1916 AB6D BD 8B AF			lda	vartype-1,x
  1917 AB70 85 A5			sta	arg5		; output type
  1918
  1919 AB72 4C 67 BF			jmp	push0
  1920 					.endp
  1921
  1922 AB75			cgsh	.proc	
  1923 AB75 20 D9 AC			jsr	chasseq
  1924 AB78 F0 39			beq	codegen.cg1
  1925 AB7A AD 63 05		??cgs1	lda	stkbase-20
  1926 AB7D F0 2E			beq	??cgs5		; no shift!
  1927 AB7F C9 05			cmp	#5
  1928 AB81 B0 30			bcs	codegen.cg1	; too large a shift
  1929 								; whew!, we can now shift it
  1930 AB83 A4 A0			ldy	arg0
  1931 AB85 C0 10			cpy	#tokens.rshid
  1932 AB87 F0 11			beq	??cgs2		; right shift
  1933 AB89 A9 06			lda	#$06		; ASL
  1934 AB8B 20 08 BE			jsr	op1l
  1935 AB8E A5 A4			lda	arg4
  1936 AB90 F0 16			beq	??cgs4
  1937 AB92 A9 26			lda	#$26		; ROL
  1938 AB94 20 A1 BE			jsr	op1h
  1939 AB97 4C A8 AB			jmp	??cgs4
  1940
  1941 AB9A A9 46		??cgs2	lda	#$46		; LSR
  1942 AB9C A6 A4			ldx	arg4
  1943 AB9E F0 05			beq	??cgs3
  1944 ABA0 20 A1 BE			jsr	op1h
  1945 ABA3 A9 66			lda	#$66		; ROR
  1946 ABA5 20 08 BE		??cgs3	jsr	op1l
  1947
  1948 ABA8 CE 63 05		??cgs4	dec	stkbase-20
  1949 ABAB D0 CD			bne	??cgs1
  1950 ABAD 4C 14 AB		??cgs5	jmp	popst
  1951 					.endp
  1952
  1953 ABB0			codegen	.proc			; CodeGen(op)
  1954 ABB0 20 3C AB			jsr	genops
  1955 ABB3 20 D7 04		cg1	jsr	cgend
  1956 ABB6 A5 A0			lda	arg0
  1957 ABB8 0A				asl
  1958 ABB9 18				clc	
  1959 ABBA 65 A0			adc	arg0
  1960 ABBC A8				tay	
  1961 ABBD B9 9C AF			lda	cgops-3,y
  1962 ABC0 85 A8			sta	arg8
  1963 ABC2 B9 9D AF			lda	cgops-2,y
  1964 ABC5 BE 9E AF			ldx	cgops-1,y
  1965 ABC8 4C A8 B7			jmp	jsrind		; jmp to qcode for op
  1966 					.endp
  1967
  1968 ABCB			cgplus	.proc			; CGPlus()
  1969 ABCB 20 D9 AC			jsr	chasseq
  1970 ABCE F0 E3			beq	codegen.cg1
  1971 ABD0 AD 63 05			lda	stkbase-20
  1972 ABD3 C9 01			cmp	#1		; see if const = 1
  1973 ABD5 D0 DC			bne	codegen.cg1	; no
  1974 								; whew!, we can now increament it
  1975 ABD7 A9 E6			lda	#$e6		; INC
  1976 ABD9 20 08 BE			jsr	op1l
  1977 ABDC A5 A4			lda	arg4
  1978 ABDE F0 19			beq	??cga2		; byte var
  1979 ABE0 A9 D0			lda	#$d0		; BNE
  1980 ABE2 20 80 BF			jsr	push1
  1981 ABE5 A0 0C			ldy	#12
  1982 ABE7 20 10 BF			jsr	savecd
  1983 ABEA A9 00			lda	#0
  1984 ABEC 20 80 BF			jsr	push1		; offset
  1985 ABEF A9 E6			lda	#$e6		; INC
  1986 ABF1 20 A1 BE			jsr	op1h
  1987 ABF4 A0 0D			ldy	#13
  1988 ABF6 20 E6 A7			jsr	fillbr
  1989 ABF9 4C 14 AB		??cga2	jmp	popst
  1990 					.endp
  1991
  1992 ABFC			cgexperr
  1993 ABFC 4C 1B AA			jmp	experr
  1994
  1995
  1996 ABFF			cgassign	.proc		; CGAssign()
  1997 ABFF A9 00			lda	#0
  1998 AC01 20 3C AB			jsr	genops
  1999 AC04 20 D7 04			jsr	cgend
  2000 AC07 20 E7 AC			jsr	chstkeq		; see if INC
  2001 AC0A D0 52			bne	cga1		; yes, just return
  2002 AC0C A5 A1			lda	arg1
  2003 AC0E 10 36			bpl	??ass1		; cond. exp. of record
  2004 AC10 2C C3 BE			bit	tempmode	; rhs temp?
  2005 AC13 D0 4F			bne	??cgat		; yes
  2006 AC15 C9 88			cmp	#tokens.vart		; const?
  2007 AC17 B0 31			bcs	??cgav		; no
  2008 								; rhs constant
  2009 AC19 A5 A2			lda	arg2
  2010 AC1B C9 90			cmp	#tokens.arrayt		; simple var
  2011 AC1D B0 2B			bcs	??cgav
  2012 								; if STY addr16,X was supported
  2013 								; BCC ??CGC0 ; yes
  2014 								; BIT tempMode ; lhs temp?
  2015 								; BNE ??CGAV ; yes, large array
  2016 AC1F A6 A4			ldx	arg4
  2017 AC21 F0 12			beq	??cgc1		; byte
  2018 AC23 A0 02			ldy	#2
  2019 AC25 B1 B9			lda	(stack),y
  2020 AC27 C9 02			cmp	#2
  2021 AC29 B0 23			bcs	??cgavi
  2022 AC2B 85 AC			sta	arg12
  2023 AC2D 20 95 BD			jsr	loady
  2024 AC30 A9 84			lda	#$84		; STY
  2025 AC32 20 A1 BE			jsr	op1h
  2026 AC35 A0 01		??cgc1	ldy	#1
  2027 AC37 B1 B9			lda	(stack),y
  2028 AC39 C9 02			cmp	#2
  2029 AC3B B0 19			bcs	??cgavb
  2030 AC3D 85 AC			sta	arg12
  2031 AC3F 20 95 BD			jsr	loady
  2032 AC42 A9 84			lda	#$84		; STY
  2033 AC44 D0 15			bne	??avb2		; unconditional branch
  2034
  2035 AC46 C9 70		??ass1	cmp	#tokens.typet
  2036 AC48 90 B2			bcc	cgexperr	; cond. exp.
  2037
  2038 								; rhs var
  2039 AC4A A6 A4		??cgav	ldx	arg4		; lhs type=byte?
  2040 AC4C F0 08			beq	??cgavb		; yes
  2041 								; CPX #3	 ; lhs = int?
  2042 								; BNE ??CGAVI	 ; yes
  2043 								; lhs type = real
  2044 								; JMP AssErr
  2045 AC4E 20 AF BE		??cgavi	jsr	load2h
  2046 AC51 A9 81		??avi1	lda	#opcode.sta_izx	; STA (zp,x)
  2047 AC53 20 A1 BE			jsr	op1h
  2048
  2049 AC56 20 95 BE		??cgavb	jsr	load2l
  2050 AC59 A9 81		??avb1	lda	#opcode.sta_izx	; STA (zp,x)
  2051 AC5B 20 08 BE		??avb2	jsr	op1l
  2052
  2053 AC5E 20 14 AB		cga1	jsr	popst
  2054 AC61 4C 14 AB			jmp	popst
  2055
  2056 AC64 29 10		??cgat	and	#$10		; rhs array?
  2057 AC66 D0 E2			bne	??cgav		; yes
  2058
  2059 								; special case for arg0
  2060 AC68 A0 01			ldy	#1
  2061 AC6A B1 B9			lda	(stack),y
  2062 AC6C C9 A0			cmp	#args
  2063 AC6E F0 DA			beq	??cgav		; function return value
  2064
  2065 AC70 A5 A4			lda	arg4		; lhs byte?
  2066 AC72 F0 57			beq	??cgatb		; yes
  2067 								; int/card temp
  2068 AC74 A5 A2			lda	arg2
  2069 AC76 29 10			and	#$10		; array?
  2070 AC78 D0 46			bne	??cgata		; yes
  2071
  2072 AC7A A5 A3			lda	arg3
  2073 AC7C D0 08			bne	??cgat1
  2074 								; rhs type is BYTE
  2075 AC7E 20 AF BE			jsr	load2h		; generate LDA #0 instr.
  2076 AC81 A0 05			ldy	#5
  2077 AC83 20 10 BF			jsr	savecd
  2078
  2079 AC86 A0 04		??cgat1	ldy	#4
  2080 AC88 20 F6 BE			jsr	loadi
  2081 AC8B A0 08			ldy	#8
  2082 AC8D A5 A2			lda	arg2
  2083 AC8F 29 60			and	#$60		; lhs .proc or temp(argument)?
  2084 AC91 D0 1D			bne	??cgat3		; yes
  2085 AC93 20 49 BF			jsr	stkpz
  2086 AC96 F0 1F			beq	??cgat4		; page zero
  2087 AC98 84 AD			sty	arg13
  2088 AC9A A0 01			ldy	#1
  2089 AC9C A9 8D			lda	#opcode.sta_abs ; STA abs
  2090 AC9E 20 C2 BF			jsr	insrt3.i30	; insert STA data16
  2091 ACA1 A9 01			lda	#1
  2092 ACA3 A0 05		??cgat2	ldy	#5
  2093 ACA5 20 03 BF			jsr	loadcd
  2094 ACA8 A9 81			lda	#opcode.sta_izx	; STA (zp,x)
  2095 ACAA 20 A1 BE			jsr	op1h
  2096 ACAD 4C 5E AC			jmp	cga1
  2097
  2098 ACB0 29 40		??cgat3	and	#$40		; .proc?
  2099 ACB2 D0 9A			bne	??cgavi		; yes, punt(not the best qcode)
  2100 ACB4 20 39 BF			jsr	stkaddr		; temp (.proc argument)
  2101 ACB7 A0 01		??cgat4	ldy	#1
  2102 ACB9 8A				txa	
  2103 ACBA 91 AE			sta	(arg14),y
  2104 ACBC A9 00			lda	#0
  2105 ACBE F0 E3			beq	??cgat2
  2106 								; temp array
  2107 ACC0 A5 A3		??cgata	lda	arg3
  2108 ACC2 F0 8A			beq	??cgavi
  2109 ACC4 A0 05			ldy	#5
  2110 ACC6 20 01 BF			jsr	ldcdz
  2111 ACC9 D0 86			bne	??avi1		; unconditional branch
  2112
  2113 ACCB A0 03		??cgatb	ldy	#3
  2114 ACCD 20 03 BF			jsr	loadcd
  2115 ACD0 A5 A3			lda	arg3		; see if rhs BYTE or CHAR
  2116 ACD2 F0 85			beq	??avb1		; yes
  2117 ACD4 20 C2 BD			jsr	trashy		; in case INT ARRAY in rhs
  2118 								; oh if I only had more qcode space!
  2119 								; could handle Y, see ??OpA in CGU
  2120 ACD7 D0 80			bne	??avb1		; unconditional branch
  2121 					.endp
  2122
  2123
  2124 				;	chasseq (mode)
  2125 				;	--------------
  2126 ACD9			chasseq	.proc
  2127 ACD9 20 3C AB			jsr	genops
  2128 ACDC A5 A1			lda	arg1
  2129 ACDE C9 88			cmp	#tokens.vart		; see if const
  2130 ACE0 B0 22			bcs	chstkeq.??cse2		; no
  2131 ACE2 AD 64 05			lda	stkbase-19	; see if byte
  2132 ACE5 D0 1D			bne	chstkeq.??cse2		; no
  2133 								; see if left and right hand are =
  2134 				;	JMP ChStkEq
  2135 ACE7				m_assert_next chstkeq	; falls into chstkeq
Macro: M_ASSERT_NEXT [Source: ACTION.DEF.asm]
Source: COMPILER.asm
  2136 					.endp
  2137
  2138 ACE7			chstkeq	.proc
  2139 ACE7 A2 02			ldx	#2
  2140 ACE9 AD 70 05			lda	stkbase-7
  2141 ACEC 29 F8			and	#$f8
  2142 ACEE C9 B0			cmp	#$b0		; large array?
  2143 ACF0 F0 12			beq	??cse2		; yes, can't INC or shift
  2144 ACF2 C9 98			cmp	#tokens.arrayt+8	; small array?
  2145 ACF4 D0 02			bne	??cse1		; no
  2146 ACF6 A2 05			ldx	#5
  2147 ACF8 BD 69 05		??cse1	lda	stkbase-14,x
  2148 ACFB DD 70 05			cmp	stkbase-7,x
  2149 ACFE D0 04			bne	??cse2
  2150 AD00 CA				dex	
  2151 AD01 10 F5			bpl	??cse1
  2152 AD03 60				rts	
  2153
  2154 AD04 A9 00		??cse2	lda	#0
  2155 AD06 60				rts	
  2156 					.endp
  2157
  2158
  2159 				;	CGAdd()
  2160 				;	-------
  2161 AD07			cgadd	.proc
  2162 AD07 A5 A1			lda	arg1
  2163 AD09 10 44			bpl	??a3
  2164 AD0B 05 A2			ora	arg2
  2165 AD0D C9 88			cmp	#tokens.vart		; see if both ops consts
  2166 AD0F B0 3E			bcs	??a3		; not const
  2167 AD11 A5 A7			lda	arg7
  2168 AD13 29 07			and	#7
  2169 AD15 09 80			ora	#tokens.constt
  2170 AD17 85 A7			sta	arg7
  2171 AD19 A0 08			ldy	#8
  2172 AD1B A6 A8			ldx	arg8
  2173 AD1D D0 14			bne	??a1		; subtract constants
  2174 								; add constants
  2175 AD1F 18				clc	
  2176 AD20 B1 B9			lda	(stack),y
  2177 AD22 A0 01			ldy	#1
  2178 AD24 71 B9			adc	(stack),y
  2179 AD26 85 A9			sta	arg9
  2180 AD28 A0 09			ldy	#9
  2181 AD2A B1 B9			lda	(stack),y
  2182 AD2C A0 02			ldy	#2
  2183 AD2E 71 B9			adc	(stack),y
  2184 AD30 4C 44 AD			jmp	??a2
  2185
  2186 AD33 38			??a1	sec	
  2187 AD34 B1 B9			lda	(stack),y
  2188 AD36 A0 01			ldy	#1
  2189 AD38 F1 B9			sbc	(stack),y
  2190 AD3A 85 A9			sta	arg9
  2191 AD3C A0 09			ldy	#9
  2192 AD3E B1 B9			lda	(stack),y
  2193 AD40 A0 02			ldy	#2
  2194 AD42 F1 B9			sbc	(stack),y
  2195
  2196 AD44 AA			??a2	tax	
  2197 AD45 F0 31			beq	cgadd4
  2198 AD47 A5 A5			lda	arg5
  2199 AD49 D0 2D			bne	cgadd4
  2200 AD4B A9 83			lda	#tokens.constt+types.intt
  2201 AD4D D0 2B			bne	cgadd5		; unconditional branch
  2202
  2203 								; normal add or sub.
  2204 AD4F A6 A8		??a3	ldx	arg8
  2205 AD51 BD 92 AF			lda	cgopscd,x
  2206 AD54 20 80 BF			jsr	push1
  2207
  2208 AD57 20 D5 BE		cgadd1	jsr	gettemps
  2209
  2210 AD5A 20 06 BE			jsr	load1l
  2211
  2212 AD5D 20 33 BF			jsr	opcd1
  2213 AD60 20 97 BE			jsr	op2l
  2214
  2215 AD63 20 97 BF			jsr	stempl
  2216
  2217 AD66 A5 A5			lda	arg5
  2218 AD68 F0 0C			beq	cgadd3
  2219
  2220 AD6A 20 9F BE			jsr	load1h
  2221
  2222 AD6D 20 33 BF			jsr	opcd1
  2223 AD70 20 B1 BE			jsr	op2h
  2224
  2225 AD73 20 91 BF		cgadd2	jsr	stemph
  2226
  2227 AD76 A2 00		cgadd3	ldx	#0
  2228 AD78 A5 A7		cgadd4	lda	arg7
  2229 AD7A A0 07		cgadd5	ldy	#7
  2230 AD7C 91 B9			sta	(stack),y
  2231 AD7E C8				iny	
  2232 AD7F A5 A9			lda	arg9
  2233 AD81 20 14 BF			jsr	savecd.savstk
  2234 AD84 4C 14 AB		cgadd6	jmp	popst
  2235 					.endp
  2236
  2237
  2238 AD87			cgshift	.proc	
  2239 AD87 A5 A5			lda	arg5		; byte ?
  2240 AD89 D0 4B			bne	cgdiv.cgmd	; no
  2241 AD8B A5 A1			lda	arg1
  2242 AD8D C9 88			cmp	#tokens.vart		; see if constant
  2243 AD8F B0 45			bcs	cgdiv.cgmd	; no
  2244 AD91 A0 01			ldy	#1
  2245 AD93 B1 B9			lda	(stack),y
  2246 AD95 F0 ED			beq	cgadd.cgadd6	; ignore shift
  2247 AD97 C9 08			cmp	#8		; shift high  7
  2248 AD99 90 08			bcc	??s1		; no
  2249 AD9B A2 00			ldx	#0
  2250 AD9D 86 A9			stx	arg9
  2251 AD9F A9 82			lda	#tokens.constt+types.bytet
  2252 ADA1 D0 D7			bne	cgadd.cgadd5	; unconditional branch
  2253
  2254 ADA3 85 A1		??s1	sta	arg1
  2255 ADA5 A9 0A			lda	#$0a		; ASL A
  2256 ADA7 A6 A8			ldx	arg8
  2257 ADA9 F0 02			beq	??s2
  2258 ADAB A9 4A			lda	#$4a		; LSR A
  2259 ADAD 85 A3		??s2	sta	arg3
  2260 ADAF 20 D5 BE			jsr	gettemps
  2261 ADB2 20 06 BE			jsr	load1l
  2262 ADB5 A5 A3		??s3	lda	arg3		; shift Op
  2263 ADB7 20 80 BF			jsr	push1
  2264 ADBA C6 A1			dec	arg1
  2265 ADBC D0 F7			bne	??s3
  2266 ADBE 20 97 BF			jsr	stempl
  2267 ADC1 4C 76 AD			jmp	cgadd.cgadd3
  2268 					.endp
  2269
  2270
  2271 ADC4			cgmul	.proc	
  2272 ADC4 A9 AB			lda	#tokens.tempt+types.intt; force output to INT
  2273 ADC6 85 A5			sta	arg5
  2274 ADC8 85 A7			sta	arg7
  2275
  2276 					.if	.def ramzap
  2277 					.if	ramzap
  2278 ADCA 91 64			sta	(adress),y
  2279 					.else	
  2280 					nop	
  2281 					nop	
  2282 					.endif
  2283 					.endif
  2284
  2285 ADCC				m_assert_next cgdiv	; falls into cgdiv
Macro: M_ASSERT_NEXT [Source: ACTION.DEF.asm]
Source: COMPILER.asm
  2286 					.endp
  2287
  2288 ADCC			cgdiv	.proc
  2289 ADCC 20 AF BE			jsr	load2h
  2290 ADCF A9 85			lda	#opcode.sta_zp	; STA AFcur+1
  2291 ADD1 A2 85			ldx	#afcur+1
  2292 ADD3 20 A5 BF			jsr	push2
  2293 ADD6 20 D5 BE		cgmd	jsr	gettemps
  2294 ADD9 20 95 BE			jsr	load2l
  2295 ADDC A9 85			lda	#opcode.sta_zp	; STA AFcur
  2296 ADDE A2 84			ldx	#afcur
  2297 ADE0 20 A5 BF			jsr	push2
  2298 ADE3 A5 A4			lda	arg4
  2299 ADE5 F0 08			beq	??md1		; first op byte
  2300 ADE7 20 9F BE			jsr	load1h
  2301 ADEA A9 AA			lda	#opcode.tax_	; TAX
  2302 ADEC 20 80 BF			jsr	push1
  2303 ADEF 20 06 BE		??md1	jsr	load1l
  2304 ADF2 A5 A4			lda	arg4
  2305 ADF4 D0 07			bne	??md2
  2306 ADF6 A9 A2			lda	#$a2		; LDX #0
  2307 ADF8 A2 00			ldx	#0
  2308 ADFA 20 A5 BF			jsr	push2
  2309 ADFD A6 A8		??md2	ldx	arg8
  2310 ADFF 20 5B BF			jsr	jsrtable
  2311 AE02 20 97 BF			jsr	stempl
  2312 AE05 20 C2 BD			jsr	trashy
  2313 AE08 A5 A5			lda	arg5
  2314 AE0A F0 08			beq	??md3
  2315 AE0C A9 8A			lda	#$8a		; TXA
  2316 AE0E 20 80 BF			jsr	push1
  2317 AE11 20 91 BF			jsr	stemph
  2318 AE14 4C 76 AD		??md3	jmp	cgadd.cgadd3
  2319 					.endp
  2320
  2321
  2322 				;	CGOr()
  2323 				;	------
  2324 AE17			cgor	.proc
  2325 AE17 20 B0 AE			jsr	chkcond
  2326 AE1A A0 0C			ldy	#12
  2327 AE1C 20 01 BF			jsr	ldcdz
  2328 AE1F A0 08			ldy	#8
  2329 AE21 20 39 BF			jsr	stkaddr
  2330 AE24 F0 03			beq	??or1		; no JMPs
  2331 AE26 20 10 A8			jsr	filljmp
  2332
  2333 AE29 A0 05		??or1	ldy	#5
  2334 AE2B 20 01 BF			jsr	ldcdz
  2335 AE2E A0 0B			ldy	#11		; link T2 to T1
  2336 AE30 20 6E A8			jsr	setrel
  2337 AE33 20 74 A8		??or2	jsr	savrel
  2338 AE36 20 36 A8			jsr	loadn
  2339 AE39 D0 F8			bne	??or2		; get end of T1
  2340 AE3B A0 03			ldy	#3
  2341 AE3D B1 B9			lda	(stack),y
  2342 AE3F 38				sec	
  2343 AE40 20 8D A8			jsr	comprel.crel2	; patch in T2
  2344 AE43 F0 56			beq	cgand.and3	; Unconditional branch
  2345 					.endp
  2346
  2347
  2348 AE45			cgand	.proc			; CGAnd()
  2349 AE45 20 B0 AE			jsr	chkcond
  2350 AE48 A5 B9			lda	stack
  2351 AE4A A6 BA			ldx	stack+1
  2352 AE4C 20 3C A8			jsr	loadn.ln1
  2353
  2354 AE4F 20 29 A8		??and1	jsr	saven		; patch addresses
  2355 AE52 18				clc	
  2356 AE53 A5 A0			lda	arg0
  2357 AE55 69 03			adc	#3
  2358 AE57 91 A4			sta	(arg4),y
  2359 AE59 C8				iny	
  2360 AE5A B1 A4			lda	(arg4),y
  2361 AE5C 69 00			adc	#0
  2362 AE5E 91 A4			sta	(arg4),y
  2363 AE60 20 36 A8			jsr	loadn
  2364 AE63 D0 EA			bne	??and1
  2365
  2366 AE65 A0 0D			ldy	#13
  2367 AE67 20 F6 BE			jsr	loadi
  2368 AE6A A0 01			ldy	#1
  2369 AE6C 20 22 A8			jsr	save4		; link F1 to F2
  2370 AE6F A0 08			ldy	#8
  2371 AE71 20 39 BF			jsr	stkaddr
  2372 AE74 A9 4C			lda	#opcode.jmp_abs	; JMP
  2373 AE76 20 BE BF			jsr	insrt3		; patch in JMP false
  2374
  2375 AE79 A5 0E			lda	qcode
  2376 AE7B 48				pha	
  2377 AE7C 18				clc	
  2378 AE7D A5 AE			lda	arg14
  2379 AE7F 69 03			adc	#3
  2380 AE81 85 0E			sta	qcode
  2381 AE83 A0 0B			ldy	#11
  2382 AE85 20 E6 A7			jsr	fillbr		; make T1 -> Cond2
  2383 AE88 68				pla	
  2384 AE89 85 0E			sta	qcode
  2385
  2386 AE8B A0 04			ldy	#4
  2387 AE8D 20 F6 BE			jsr	loadi
  2388 AE90 18				clc	
  2389 AE91 69 03			adc	#3
  2390 AE93 90 01			bcc	??and2
  2391 AE95 E8				inx	
  2392 AE96 A0 0A		??and2	ldy	#10
  2393 AE98 20 14 BF			jsr	savecd.savstk
  2394
  2395 AE9B A0 02		and3	ldy	#2
  2396 AE9D 20 F6 BE			jsr	loadi
  2397 AEA0 A0 08			ldy	#8
  2398 AEA2 20 14 BF			jsr	savecd.savstk
  2399
  2400 AEA5 A0 0C			ldy	#12
  2401 AEA7 20 10 BF			jsr	savecd
  2402 AEAA 20 C2 BD			jsr	trashy		; just in case array in cond.
  2403 AEAD 4C 14 AB			jmp	popst		; done at last, whew!
  2404 					.endp
  2405
  2406 AEB0			chkcond	.proc	
  2407 AEB0 A9 48			lda	#tokens.condt
  2408 AEB2 C5 A1			cmp	arg1
  2409 AEB4 D0 05			bne	??cc1
  2410 AEB6 C5 A2			cmp	arg2
  2411 AEB8 D0 06			bne	conderr
  2412 AEBA 60				rts	
  2413
  2414 AEBB 68			??cc1	pla	
  2415 AEBC 68				pla	
  2416 AEBD 4C 57 AD			jmp	cgadd.cgadd1
  2417
  2418 AEC0 A0 17		conderr	ldy	#errors.cnder
  2419 AEC2 4C 83 B8			jmp	mainbnk.splerr
  2420 					.endp
  2421
  2422 AEC5			cgeq	.proc			; CGEq()
  2423 AEC5 20 06 BE		cgne	jsr	load1l
  2424 AEC8 20 22 BF			jsr	chkzero
  2425 AECB F0 05			beq	??cge0
  2426 AECD A9 41			lda	#$41		; EOR
  2427 AECF 20 97 BE			jsr	op2l
  2428 AED2 A5 A5		??cge0	lda	arg5
  2429 AED4 F0 1D			beq	cge2
  2430 AED6 20 22 BF			jsr	chkzero
  2431 AED9 08				php			; save status
  2432 AEDA F0 05			beq	??cge1
  2433 AEDC A9 D0			lda	#$d0		; BNE
  2434 AEDE 20 74 BF			jsr	pushtrue
  2435 AEE1 A9 01		??cge1	lda	#$01		; ORA
  2436 AEE3 20 A1 BE			jsr	op1h
  2437 AEE6 28				plp			; ChkZero() status
  2438 AEE7 F0 0A			beq	cge2
  2439 AEE9 A9 41			lda	#$41		; EOR
  2440 AEEB 20 B1 BE			jsr	op2h
  2441 AEEE A0 0B			ldy	#11
  2442 AEF0 20 E6 A7			jsr	fillbr
  2443
  2444 AEF3 20 33 BF		cge2	jsr	opcd1
  2445 AEF6 20 74 BF			jsr	pushtrue	; sets arg9 to zero
  2446 AEF9 A9 48			lda	#tokens.condt
  2447 AEFB 85 A7			sta	arg7
  2448 AEFD A0 0C			ldy	#12
  2449 AEFF 20 10 BF			jsr	savecd
  2450 AF02 4C 76 AD			jmp	cgadd.cgadd3
  2451 					.endp
  2452
  2453 AF05			cgls	.proc			; CGLS()
  2454 AF05 20 1B BF		cgge	jsr	relop
  2455 AF08 20 06 BE			jsr	load1l
  2456 AF0B A9 C1			lda	#opcode.cmp_izx	; CMP (zp,x)
  2457 AF0D 20 97 BE			jsr	op2l
  2458 AF10 A5 A5			lda	arg5
  2459 AF12 F0 DF			beq	cgeq.cge2
  2460 AF14 20 9F BE			jsr	load1h
  2461 AF17 A9 E1			lda	#$e1		; SBC
  2462 AF19 20 B1 BE			jsr	op2h
  2463 AF1C B0 D5			bcs	cgeq.cge2	; unconditional branch, see CodeIncr
  2464 					.endp
  2465
  2466 AF1E			cggr	.proc			; CGGR()
  2467 AF1E 20 1B BF		cgle	jsr	relop
  2468 AF21 20 95 BE			jsr	load2l
  2469 AF24 A9 C1			lda	#opcode.cmp_izx	; CMP (zp,x)
  2470 AF26 20 08 BE			jsr	op1l
  2471 AF29 A5 A5			lda	arg5
  2472 AF2B F0 C6			beq	cgeq.cge2
  2473 AF2D 20 AF BE			jsr	load2h
  2474 AF30 A9 E1			lda	#$e1		; SBC
  2475 AF32 20 A1 BE			jsr	op1h
  2476 AF35 B0 BC			bcs	cgeq.cge2	; unconditional branch, see CodeIncr
  2477 					.endp
  2478
  2479 AF37			cgum	.proc			; CGUM()
  2480 AF37 A5 A1			lda	arg1
  2481 AF39 29 78			and	#$78
  2482 AF3B D0 16			bne	??cgum1		; not constant
  2483 								; constant, just negate it
  2484 AF3D 38				sec	
  2485 AF3E A0 00			ldy	#0
  2486 AF40 A9 83			lda	#tokens.constt+types.intt
  2487 AF42 91 B9			sta	(stack),y
  2488 AF44 38				sec	
  2489 AF45 98				tya	
  2490 AF46 C8				iny	
  2491 AF47 F1 B9			sbc	(stack),y
  2492 AF49 91 B9			sta	(stack),y
  2493 AF4B C8				iny	
  2494 AF4C A9 00			lda	#0
  2495 AF4E F1 B9			sbc	(stack),y
  2496 AF50 91 B9			sta	(stack),y
  2497 AF52 60				rts	
  2498
  2499 AF53 20 B8 AA		??cgum1	jsr	copyst
  2500 AF56 A0 07			ldy	#7
  2501 AF58 A9 83			lda	#tokens.constt+types.intt
  2502 AF5A 91 B9			sta	(stack),y
  2503 AF5C A9 00			lda	#0
  2504 AF5E AA				tax	
  2505 AF5F C8				iny	
  2506 AF60 20 14 BF			jsr	savecd.savstk
  2507 AF63 A9 02			lda	#tokens.minusid
  2508 AF65 4C B0 AB			jmp	codegen
  2509 					.endp	
  2510
  2511 AF68			cgat	.proc			; CGAt()
  2512 AF68 A5 A1			lda	arg1
  2513 AF6A C9 88			cmp	#tokens.vart
  2514 AF6C 90 14			bcc	??cgat2
  2515 AF6E C9 98			cmp	#tokens.arrayt+8
  2516 AF70 B0 16			bcs	??cgaterr
  2517 AF72 A0 01			ldy	#1
  2518 AF74 20 41 BF			jsr	stkp
  2519 AF77 C8				iny	
  2520 AF78 20 14 BF			jsr	savecd.savstk
  2521 AF7B A0 00		??cgat1	ldy	#0
  2522 AF7D A9 84			lda	#tokens.constt+types.cardt
  2523 AF7F 91 B9			sta	(stack),y
  2524 AF81 60				rts	
  2525
  2526 AF82 29 F8		??cgat2	and	#$f8
  2527 AF84 C9 70			cmp	#tokens.typet	; check for record field
  2528 AF86 F0 F3			beq	??cgat1
  2529 								; constant or cond. exp. (error)
  2530
  2531 AF88 4C 1B AA		??cgaterr	jmp	experr
  2532 					.endp
  2533
  2534 AF8B 00				.byte	0		; for records!
  2535 AF8C 00 00 01 02 02 03	vartype	.byte	0,0,1,2,2,3
  2536
  2537 				; moved to CGU
  2538 				;outtype .BYTE $82,3,$84,realT
  2539 				; .BYTE 3,3,$84,realT
  2540 				; .BYTE $84,$84,$84,realT
  2541 				; .BYTE realT,realT,realT,realT
  2542
  2543 AF92 18 61		cgopscd	.byte	$18,$61		; CLC ADC
  2544 AF94 38 E1			.byte	$38,$e1		; SEC SBC
  2545 AF96 41 21 01			.byte	$41,$21,$01	; EOR AND ORA
  2546 AF99 30 90			.byte	$30,$90		; BMI BCC
  2547 AF9B 10 B0			.byte	$10,$b0		; BPL BCS
  2548 AF9D F0 D0			.byte	$f0,$d0		; BEQ BNE
  2549
  2550 AF9F 00			cgops	.byte	0
  2551 AFA0 07 AD			.word	cgadd
  2552 AFA2 02				.byte	2
  2553 AFA3 07 AD			.word	cgadd		; minus
  2554 AFA5 04				.byte	4
  2555 AFA6 C4 AD			.word	cgmul		; multiply
  2556 AFA8 06				.byte	6
  2557 AFA9 CC AD			.word	cgdiv		; divide
  2558 AFAB 05				.byte	5
  2559 AFAC 17 AE			.word	cgor
  2560 AFAE 04				.byte	4
  2561 AFAF 45 AE			.word	cgand
  2562 AFB1 0A				.byte	10
  2563 AFB2 C5 AE			.word	cgeq
  2564 AFB4 0B				.byte	11
  2565 AFB5 C5 AE			.word	cgeq.cgne
  2566 AFB7 06				.byte	6
  2567 AFB8 1E AF			.word	cggr
  2568 AFBA 08				.byte	8
  2569 AFBB 05 AF			.word	cgls.cgge
  2570 AFBD 06				.byte	6
  2571 AFBE 05 AF			.word	cgls
  2572 AFC0 08				.byte	8
  2573 AFC1 1E AF			.word	cggr.cgle
  2574 AFC3 08				.byte	8
  2575 AFC4 CC AD			.word	cgdiv		; remainder
  2576 AFC6 03				.byte	3
  2577 AFC7 57 AD			.word	cgadd.cgadd1	; XOR
  2578 AFC9 00				.byte	0
  2579 AFCA 87 AD			.word	cgshift		; LSH
  2580 AFCC 02				.byte	2
  2581 AFCD 87 AD			.word	cgshift		; RSH
  2582 AFCF 0C				.byte	12
  2583 AFD0 37 AF			.word	cgum		; unary minus
  2584 AFD2 00				.byte	0
  2585 AFD3 68 AF			.word	cgat
  2586
  2587 					.endp	ccompile	; end of ccompile
   113
   114 AFD5				.local cright
   115 AFD5 41 43 54 49 4F 4E + 	.byte	'ACTION! (c)1983 Action Computer Services'
   116 					.endl
   117
   118 					.endl
   119
   120 AFFD				m_end_switched_bank cl cbank
Macro: M_END_SWITCHED_BANK [Source: ACTION.ROM.asm]
     1 AFFD			bank_used_end
     3 AFFF			bank_end
     4 AFFF 09				.byte	rom.CBANK & rom.bankmsk	; Bank identifier at end of bank.
     5 					.print "Ending switched bank CL/CBANK: " , bank_used_end, " - ", bank_end, "(", bank_end-bank_used_end+1, " bytes free)"
     5 				Ending switched bank CL/CBANK: $AFFD - $AFFF($0003 bytes free)
Source: ACTION-ROM-OSS-16k.asm
   121
   122
   123 				;	ACTION! 3.6 - Editor
   124 				;	--------------------
   125 					opt	f-
   126 B000				org	rom.el
   127 					opt	f+
   128
   129 A000				.local	editor
   130 A000				icl	"editor/EDIT.asm"
Source: EDIT.asm
     1 				;
     2 				;	EDIT.ASM
     3 				;
     4 				; Copyright 1983 by Clinton W Parker.
     5 				; All Rights Reserved.
     6 				; Original last modified June 17, 1983.
     7 				;
     8 				; This file is part of Action!.
     9 				;
    10 				; Action! is free software: you can redistribute it and/or modify
    11 				; it under the terms of the GNU General Public License as published by
    12 				; the Free Software Foundation, either version 3 of the License, or
    13 				; (at your option) any later version.
    14 				;
    15 				; Action! is distributed in the hope that it will be useful,
    16 				; but WITHOUT ANY WARRANTY; without even the implied warranty of
    17 				; MERCHANTABILITY or FITNESS FOR A PARTICULAR PURPOSE.  See the
    18 				; GNU General Public License for more details.
    19 				;
    20 				; You should have received a copy of the GNU General Public License
    21 				; along with Action!.  If not, see <http://www.gnu.org/licenses/>.
    22 				;
    23 				; @com.wudsn.ide.asm.mainsourcefile=../ACTION.asm
    24
    25 = 0007			slop	equ	7		; can't be less than 4
    26
    27 A000			allocate	.proc		; Allocate(size)
    28 A000 85 86			sta	afsize		; save size
    29 A002 86 87			stx	afsize+1
    30 A004 A9 FF			lda	#$ff		; set best size
    31 A006 85 8A			sta	afbsze
    32 A008 85 8B			sta	afbsze+1
    33 A00A A9 80			lda	#<afbase	; last = base
    34 A00C 85 82			sta	aflast
    35 A00E A9 00			lda	#>afbase
    36 A010 85 83			sta	aflast+1
    37 A012 A0 00		??afl1	ldy	#0
    38 A014 B1 82			lda	(aflast),y	; cur = last(0)
    39 A016 85 84			sta	afcur
    40 A018 D0 09			bne	??afl2		; while cur # 0
    41 A01A C8				iny	
    42 A01B B1 82			lda	(aflast),y
    43 A01D 85 85			sta	afcur+1
    44 A01F D0 07			bne	??afl3
    45 A021 F0 41			beq	??afl6		; done
    46 A023 C8			??afl2	iny	
    47 A024 B1 82			lda	(aflast),y
    48 A026 85 85			sta	afcur+1
    49 A028 A0 03		??afl3	ldy	#3
    50 A02A B1 84			lda	(afcur),y	; get size
    51 A02C C5 87			cmp	afsize+1	; high bytes
    52 A02E 90 29			bcc	??afl5		; size too small
    53 A030 D0 09			bne	??afl4		; size too big
    54 A032 88				dey	
    55 A033 B1 84			lda	(afcur),y
    56 A035 C5 86			cmp	afsize		; low bytes
    57 A037 90 20			bcc	??afl5		; size too small
    58 A039 F0 5D			beq	??afl9		; sizes equal
    59
    60 				; Check for best fit
    61
    62 A03B A0 02		??afl4	ldy	#2
    63 A03D B1 84			lda	(afcur),y
    64 A03F C5 8A			cmp	afbsze
    65 A041 C8				iny	
    66 A042 B1 84			lda	(afcur),y
    67 A044 E5 8B			sbc	afbsze+1
    68 A046 B0 11			bcs	??afl5
    69
    70 				; save best guess so far
    71
    72 A048 B1 84			lda	(afcur),y
    73 A04A 85 8B			sta	afbsze+1
    74 A04C 88				dey	
    75 A04D B1 84			lda	(afcur),y
    76 A04F 85 8A			sta	afbsze
    77 A051 A5 82			lda	aflast
    78 A053 85 88			sta	afbest
    79 A055 A5 83			lda	aflast+1
    80 A057 85 89			sta	afbest+1
    81
    82 				; get next entry in list and goto
    83 				; beginning of loop
    84
    85 A059 A5 84		??afl5	lda	afcur
    86 A05B 85 82			sta	aflast
    87 A05D A5 85			lda	afcur+1
    88 A05F 85 83			sta	aflast+1
    89 A061 18				clc	
    90 A062 90 AE			bcc	??afl1
    91
    92 				; no entry found, use best guess
    93
    94 A064 A5 8B		??afl6	lda	afbsze+1
    95 A066 C9 FF			cmp	#$ff
    96 A068 F0 39			beq	??afl10		; no free block
    97
    98 				; see if we need to split block
    99
   100 A06A 38				sec	
   101 A06B A5 8A			lda	afbsze
   102 A06D E9 07			sbc	#slop
   103 A06F 85 8A			sta	afbsze
   104 A071 B0 02			bcs	??afl7
   105 A073 C6 8B			dec	afbsze+1
   106 A075 A5 8B		??afl7	lda	afbsze+1
   107 A077 C5 87			cmp	afsize+1
   108 A079 90 08			bcc	??afl8		; use as is
   109 A07B D0 27			bne	??afl11		; split it
   110 A07D A5 8A			lda	afbsze
   111 A07F C5 86			cmp	afsize
   112 A081 B0 21			bcs	??afl11		; split it
   113
   114 				; don't split
   115
   116 A083 A0 00		??afl8	ldy	#0
   117 A085 B1 88			lda	(afbest),y	; cur =  best(0)
   118 A087 85 84			sta	afcur
   119 A089 C8				iny	
   120 A08A B1 88			lda	(afbest),y
   121 A08C 85 85			sta	afcur+1
   122
   123 A08E B1 84			lda	(afcur),y	; best(0) = cur(0)
   124 A090 91 88			sta	(afbest),y
   125 A092 88				dey	
   126 A093 B1 84			lda	(afcur),y
   127 A095 91 88			sta	(afbest),y
   128 A097 60				rts	
   129
   130 				; found entry of right size
   131
   132 A098 A0 00		??afl9	ldy	#0
   133 A09A B1 84			lda	(afcur),y
   134 A09C 91 82			sta	(aflast),y
   135 A09E C8				iny	
   136 A09F B1 84			lda	(afcur),y
   137 A0A1 91 82			sta	(aflast),y
   138 A0A3 60			??afl10	rts	
   139
   140 				; split best block
   141
   142 A0A4 A0 00		??afl11	ldy	#0
   143 A0A6 B1 88			lda	(afbest),y	; cur = best(0)
   144 A0A8 85 84			sta	afcur
   145 A0AA 18				clc	
   146 A0AB 65 86			adc	afsize
   147 A0AD 91 88			sta	(afbest),y	; best(0)=cur+size
   148 A0AF 85 82			sta	aflast		; last = cur + size
   149 A0B1 C8				iny	
   150 A0B2 B1 88			lda	(afbest),y
   151 A0B4 85 85			sta	afcur+1
   152 A0B6 65 87			adc	afsize+1
   153 A0B8 91 88			sta	(afbest),y
   154 A0BA 85 83			sta	aflast+1
   155
   156 A0BC C8				iny	
   157 A0BD 38				sec	
   158 A0BE B1 84			lda	(afcur),y
   159 A0C0 E5 86			sbc	afsize		; last(1) = bsze-size
   160 A0C2 91 82			sta	(aflast),y
   161 A0C4 A5 86			lda	afsize
   162 A0C6 91 84			sta	(afcur),y	; cur(1) = size
   163 A0C8 C8				iny	
   164 A0C9 B1 84			lda	(afcur),y
   165 A0CB E5 87			sbc	afsize+1
   166 A0CD 91 82			sta	(aflast),y
   167 A0CF A5 87			lda	afsize+1
   168 A0D1 91 84			sta	(afcur),y
   169 A0D3 18				clc	
   170 A0D4 90 C2			bcc	??afl9
   171 					.endp
   172
   173 A0D6			free	.proc			; Free(block)
   174 A0D6 85 88			sta	afbest
   175 A0D8 86 89			stx	afbest+1
   176
   177 A0DA A9 80		free1	lda	#<afbase	; cur = base
   178 A0DC 85 84			sta	afcur
   179 A0DE A9 00			lda	#>afbase
   180 A0E0 85 85			sta	afcur+1
   181
   182 A0E2 A5 84		??afl12	lda	afcur		; last = cur
   183 A0E4 85 82			sta	aflast
   184 A0E6 A5 85			lda	afcur+1
   185 A0E8 85 83			sta	aflast+1
   186
   187 A0EA A0 00			ldy	#0
   188 A0EC B1 82			lda	(aflast),y	; cur = last(0)
   189 A0EE 85 84			sta	afcur
   190 A0F0 C5 88			cmp	afbest
   191 A0F2 C8				iny	
   192 A0F3 B1 82			lda	(aflast),y
   193 A0F5 85 85			sta	afcur+1
   194 A0F7 E5 89			sbc	afbest+1
   195 A0F9 B0 08			bcs	??afl13		; while cur ULS block
   196 A0FB A5 85			lda	afcur+1		; and cur # 0
   197 A0FD D0 E3			bne	??afl12
   198 A0FF A5 84			lda	afcur
   199 A101 D0 DF			bne	??afl12
   200
   201 A103 C8			??afl13	iny	
   202 A104 18				clc	
   203 A105 B1 88			lda	(afbest),y
   204 A107 65 88			adc	afbest
   205 A109 AA				tax	
   206 A10A C8				iny	
   207 A10B B1 88			lda	(afbest),y
   208 A10D 29 7F			and	#$7f		; clear tag flag
   209 A10F 91 88			sta	(afbest),y
   210 A111 65 89			adc	afbest+1
   211 A113 C5 85			cmp	afcur+1
   212 A115 D0 21			bne	??afl15
   213 A117 E4 84			cpx	afcur		; if cur =
   214 A119 D0 1D			bne	??afl15		;  (block + block(1))
   215 A11B 88				dey	
   216 A11C 18				clc			; block(1) =
   217 A11D B1 88			lda	(afbest),y	;  block(1) +  cur(1)
   218 A11F 71 84			adc	(afcur),y
   219 A121 91 88			sta	(afbest),y
   220 A123 C8				iny	
   221 A124 B1 88			lda	(afbest),y
   222 A126 71 84			adc	(afcur),y
   223 A128 91 88			sta	(afbest),y
   224 A12A A0 00			ldy	#0		; block(0) = cur(0)
   225 A12C B1 84			lda	(afcur),y
   226 A12E 91 88			sta	(afbest),y
   227 A130 C8				iny	
   228 A131 B1 84			lda	(afcur),y
   229 A133 91 88			sta	(afbest),y
   230 A135 18				clc	
   231 A136 90 0B			bcc	??afl16
   232
   233 				;:AFL14 PLP
   234 A138 A0 00		??afl15	ldy	#0		; block(0) = cur
   235 A13A A5 84			lda	afcur
   236 A13C 91 88			sta	(afbest),y
   237 A13E C8				iny	
   238 A13F A5 85			lda	afcur+1
   239 A141 91 88			sta	(afbest),y
   240
   241 A143 C8			??afl16	iny			; if block =
   242 A144 18				clc			; (last + last(1))
   243 A145 A5 82			lda	aflast
   244 A147 71 82			adc	(aflast),y
   245 A149 AA				tax	
   246 A14A C8				iny	
   247 A14B A5 83			lda	aflast+1
   248 A14D 71 82			adc	(aflast),y
   249 A14F C5 89			cmp	afbest+1
   250 A151 D0 1F			bne	??afl18
   251 A153 E4 88			cpx	afbest
   252 A155 D0 1B			bne	??afl18
   253
   254 A157 18				clc			; last(1) =
   255 A158 88				dey			;  last(1)+block(1)
   256 A159 B1 82			lda	(aflast),y
   257 A15B 71 88			adc	(afbest),y
   258 A15D 91 82			sta	(aflast),y
   259 A15F C8				iny	
   260 A160 B1 82			lda	(aflast),y
   261 A162 71 88			adc	(afbest),y
   262 A164 91 82			sta	(aflast),y
   263
   264 A166 A0 00			ldy	#0		; last(0) = block(0)
   265 A168 B1 88			lda	(afbest),y
   266 A16A 91 82			sta	(aflast),y
   267 A16C C8				iny	
   268 A16D B1 88			lda	(afbest),y
   269 A16F 91 82			sta	(aflast),y
   270 A171 60				rts	
   271
   272 				;:AFL17 PLP
   273 A172 A0 00		??afl18	ldy	#0		; last(0) = block
   274 A174 A5 88			lda	afbest
   275 A176 91 82			sta	(aflast),y
   276 A178 C8				iny	
   277 A179 A5 89			lda	afbest+1
   278 A17B 91 82			sta	(aflast),y
   279 A17D 60				rts	
   280 					.endp
   281
   282 A17E				icl "EDIT.MEM.asm"
Source: EDIT.MEM.asm
     1 				;
     2 				;	EDIT.MEM
     3 				;
     4 				; Copyright 1983 by Clinton W Parker.
     5 				; All Rights Reserved.
     6 				; Original last modified March 9, 1983.
     7 				;
     8 				; This file is part of Action!.
     9 				;
    10 				; Action! is free software: you can redistribute it and/or modify
    11 				; it under the terms of the GNU General Public License as published by
    12 				; the Free Software Foundation, either version 3 of the License, or
    13 				; (at your option) any later version.
    14 				;
    15 				; Action! is distributed in the hope that it will be useful,
    16 				; but WITHOUT ANY WARRANTY; without even the implied warranty of
    17 				; MERCHANTABILITY or FITNESS FOR A PARTICULAR PURPOSE.  See the
    18 				; GNU General Public License for more details.
    19 				;
    20 				; You should have received a copy of the GNU General Public License
    21 				; along with Action!.  If not, see <http://www.gnu.org/licenses/>.
    22 				;
    23 				; @com.wudsn.ide.asm.mainsourcefile=../ACTION.asm
    24
    25 A17E				.proc mem
    26
    27 A17E			getmem	.proc			; GetMem(size)
    28 A17E 18				clc	
    29 A17F 69 04			adc	#4
    30 A181 85 86			sta	afsize
    31 A183 90 01			bcc	??gm0
    32 A185 E8				inx	
    33 A186 86 87		??gm0	stx	afsize+1
    34 A188 20 04 A0		??gm1	jsr	allocate+4
    35
    36 A18B A6 85			ldx	afcur+1
    37 A18D F0 09			beq	gmerr		; no memory allocated !
    38 A18F 18				clc	
    39 A190 A5 84			lda	afcur
    40 A192 69 04			adc	#4
    41 A194 90 01			bcc	??gm2
    42 A196 E8				inx	
    43
    44 A197 60			??gm2	rts	
    45
    46 A198 A0 00		gmerr	ldy	#0
    47 A19A 20 E1 B0			jsr	mainio.syserr
    48
    49 A19D AD A3 04			lda	vars.sparem
    50 A1A0 AE A4 04			ldx	vars.sparem+1
    51 A1A3 AC A6 04			ldy	vars.allocerr
    52 A1A6 D0 09			bne	punt		; really out of memory
    53 A1A8 EE A6 04			inc	vars.allocerr
    54 A1AB 20 D6 A0			jsr	free
    55 A1AE 4C 88 A1			jmp	??gm1		; retry
    56 					.endp
    57
    58 A1B1			punt	.proc
    59 A1B1 20 61 A9			jsr	dsp.savewd		; we're in big trouble
    60 A1B4 4C 6B AD			jmp	monitor.rstwnd
    61 					.endp
    62
    63 A1B7			freemem	.proc			; FreeMem(addr)
    64 A1B7 38				sec	
    65 A1B8 E9 04			sbc	#4
    66 A1BA B0 01			bcs	freem1
    67 A1BC CA				dex	
    68 A1BD 4C D6 A0		freem1	jmp	free
    69 					.endp
    70
    71 A1C0			instb	.proc			; InstB()
    72 A1C0 A5 94			lda	cur
    73 A1C2 85 A3			sta	arg3
    74 A1C4 A5 95			lda	cur+1
    75 A1C6 85 A4			sta	arg4
    76 A1C8 20 D0 A1			jsr	instbuf
    77 A1CB 85 94			sta	cur
    78 A1CD 86 95			stx	cur+1
    79 A1CF 60				rts	
    80 					.endp
    81
    82 A1D0			instbuf	.proc			; InstBuf(,,up)
    83 A1D0 A0 00			ldy	#0
    84 A1D2 B1 9B			lda	(buf),y
    85 A1D4 A6 9B			ldx	buf
    86 A1D6 A4 9C			ldy	buf+1
    87 A1D8				m_assert_next instln	; falls into instln
Macro: M_ASSERT_NEXT [Source: ACTION.DEF.asm]
Source: EDIT.MEM.asm
    88 					.endp
    89
    90 A1D8			instln	.proc			; InstLn(sze,sloc,up)
    91 A1D8 85 A0			sta	arg0		; save sze
    92 A1DA 86 A1			stx	arg1		; save sloc
    93 A1DC 84 A2			sty	arg2
    94 A1DE 18				clc	
    95 A1DF 69 03			adc	#3
    96 A1E1 A2 00			ldx	#0
    97 A1E3 20 7E A1			jsr	getmem
    98
    99 A1E6 18				clc	
   100 A1E7 69 02			adc	#2
   101 A1E9 85 A5			sta	arg5
   102 A1EB 8A				txa	
   103 A1EC 69 00			adc	#0
   104 A1EE 85 A6			sta	arg6
   105 A1F0 A4 A0			ldy	arg0
   106 A1F2 F0 07			beq	??il1a
   107 A1F4 B1 A1		??il1	lda	(arg1),y
   108 A1F6 91 A5			sta	(arg5),y
   109 A1F8 88				dey	
   110 A1F9 D0 F9			bne	??il1
   111 A1FB A5 A0		??il1a	lda	arg0
   112 A1FD 91 A5			sta	(arg5),y
   113
   114 A1FF A5 A4			lda	arg4
   115 A201 D0 3A			bne	??il4		; up # 0
   116
   117 A203 A5 90			lda	top		; down ??= top
   118 A205 85 A5			sta	arg5
   119 A207 A0 04			ldy	#4		; AFcur(2) ??= down
   120 A209 91 84			sta	(afcur),y
   121 A20B A5 91			lda	top+1
   122 A20D 85 A6			sta	arg6
   123 A20F C8				iny	
   124 A210 91 84			sta	(afcur),y
   125
   126 A212 A5 84			lda	afcur		; top ??= AFcur
   127 A214 85 90			sta	top
   128 A216 A5 85			lda	afcur+1
   129 A218 85 91			sta	top+1
   130
   131 A21A A0 00			ldy	#0		; AFcur(0) ??= 0
   132 A21C 98				tya	
   133 A21D 91 84			sta	(afcur),y
   134 A21F C8				iny	
   135 A220 91 84			sta	(afcur),y
   136
   137 A222 A5 A6		??il2	lda	arg6
   138 A224 D0 09			bne	??il3		; down # 0
   139 A226 A5 84			lda	afcur		; bot ??= AFcur
   140 A228 85 92			sta	bot
   141 A22A A6 85			ldx	afcur+1
   142 A22C 86 93			stx	bot+1
   143 A22E 60				rts	
   144
   145 A22F A0 01		??il3	ldy	#1
   146 A231 A5 85			lda	afcur+1		; @down ??= AFcur
   147 A233 91 A5			sta	(arg5),y
   148 A235 88				dey	
   149 A236 A5 84			lda	afcur
   150 A238 91 A5			sta	(arg5),y
   151 A23A A6 85			ldx	afcur+1
   152 A23C 60				rts	
   153
   154 A23D A0 04		??il4	ldy	#4
   155 A23F B1 A3			lda	(arg3),y
   156 A241 85 A5			sta	arg5		; down ??= Next(up)
   157 A243 91 84			sta	(afcur),y	; AFcur(2) ??= down
   158 A245 A5 84			lda	afcur
   159 A247 91 A3			sta	(arg3),y	; up(2) ??= AFcur
   160 A249 C8				iny	
   161 A24A B1 A3			lda	(arg3),y
   162 A24C 85 A6			sta	arg6
   163 A24E 91 84			sta	(afcur),y
   164 A250 A5 85			lda	afcur+1
   165 A252 91 A3			sta	(arg3),y
   166
   167 A254 A0 00			ldy	#0
   168 A256 A5 A3			lda	arg3
   169 A258 91 84			sta	(afcur),y
   170 A25A C8				iny	
   171 A25B A5 A4			lda	arg4
   172 A25D 91 84			sta	(afcur),y
   173
   174 A25F 4C 22 A2			jmp	??il2
   175 					.endp
   176
   177 A262			delcur	.proc			; DelCur()
   178 A262 A5 94			lda	cur
   179 A264 A6 95			ldx	cur+1
   180 A266 20 6E A2			jsr	delln
   181 A269 85 94			sta	cur
   182 A26B 86 95			stx	cur+1
   183 A26D 60			dln1	rts	
   184 					.endp
   185
   186 A26E			delln	.proc			; DelLn(lineptr)
   187 A26E E0 00			cpx	#0
   188 A270 F0 FB			beq	delcur.dln1
   189 A272 85 A0			sta	arg0
   190 A274 86 A1			stx	arg1
   191 A276 A0 04			ldy	#4
   192 A278 B1 A0			lda	(arg0),y
   193 A27A 85 A4			sta	arg4		; down ??= Next(ptr)
   194 A27C C8				iny	
   195 A27D B1 A0			lda	(arg0),y
   196 A27F 85 A5			sta	arg5
   197
   198 A281 A0 00			ldy	#0
   199 A283 B1 A0			lda	(arg0),y
   200 A285 85 A2			sta	arg2		; up ??= Prev(ptr)
   201 A287 C8				iny	
   202 A288 B1 A0			lda	(arg0),y
   203 A28A 85 A3			sta	arg3
   204
   205 A28C D0 0B			bne	??dln2		; up # 0
   206 A28E A5 A4			lda	arg4
   207 A290 85 90			sta	top		; top ??= down
   208 A292 A5 A5			lda	arg5
   209 A294 85 91			sta	top+1
   210 A296 4C A4 A2			jmp	??dln3
   211
   212 A299 A0 04		??dln2	ldy	#4
   213 A29B A5 A4			lda	arg4
   214 A29D 91 A2			sta	(arg2),y	; up(2) ??= down
   215 A29F C8				iny	
   216 A2A0 A5 A5			lda	arg5
   217 A2A2 91 A2			sta	(arg2),y
   218
   219 A2A4 A5 A5		??dln3	lda	arg5
   220 A2A6 D0 0B			bne	??dln4		; down # 0
   221 A2A8 A5 A2			lda	arg2
   222 A2AA 85 92			sta	bot		; bot ??= up
   223 A2AC A5 A3			lda	arg3
   224 A2AE 85 93			sta	bot+1
   225 A2B0 4C BE A2			jmp	??dln5
   226
   227 A2B3 A0 00		??dln4	ldy	#0
   228 A2B5 A5 A2			lda	arg2
   229 A2B7 91 A4			sta	(arg4),y	; down(0) ??= up
   230 A2B9 C8				iny	
   231 A2BA A5 A3			lda	arg3
   232 A2BC 91 A4			sta	(arg4),y
   233
   234 A2BE A5 A0		??dln5	lda	arg0
   235 A2C0 A6 A1			ldx	arg1
   236 A2C2 20 D6 A0			jsr	free
   237
   238 A2C5 A5 A2			lda	arg2
   239 A2C7 A6 A3			ldx	arg3
   240 A2C9 60				rts	
   241 					.endp
   242
   243 					.endp			; End of mem
   283 A2CA				icl "EDIT.CAR.asm"	; falls into "EDIT.MAN.asm"!
Source: EDIT.CAR.asm
     1 				;
     2 				;	EDIT.CAR
     3 				;
     4 				; Copyright 1983 by Clinton W Parker.
     5 				; All Rights Reserved.
     6 				; Original last modified June 29, 1983.
     7 				;
     8 				; This file is part of Action!.
     9 				;
    10 				; Action! is free software: you can redistribute it and/or modify
    11 				; it under the terms of the GNU General Public License as published by
    12 				; the Free Software Foundation, either version 3 of the License, or
    13 				; (at your option) any later version.
    14 				;
    15 				; Action! is distributed in the hope that it will be useful,
    16 				; but WITHOUT ANY WARRANTY; without even the implied warranty of
    17 				; MERCHANTABILITY or FITNESS FOR A PARTICULAR PURPOSE.  See the
    18 				; GNU General Public License for more details.
    19 				;
    20 				; You should have received a copy of the GNU General Public License
    21 				; along with Action!.  If not, see <http://www.gnu.org/licenses/>.
    22 				;
    23 				; @com.wudsn.ide.asm.mainsourcefile=../ACTION.asm
    24
    25 					.if fix_stsp_pages = 0
    26 = 0008			stsp_pages	= $08		; 2K id space
    27 					.else
    28 				stsp_pages	= $10		; 4K id space
    29 					.endif
    30
    31 A2CA			emjmps	.local			; Initiaalization values for jump tabls jmps 
    32 A2CA 60				rts			; Seg catch all
    33 A2CB 00 00			.word	0
    34
    35 					.if	.def rom.ebank
    36 A2CD 03				.byte	rom.ebank	; curBank
    37 					.else
    38 					.byte	0
    39 					.endif
    40
    41 A2CE DF				.byte	$df		; stMask
    42 A2CF 4C 83 B8			jmp	mainbnk.splerr	; Error
    43 A2D2 12				.byte	18		; wSize
    44 A2D3 78				.byte	120		; line input max
    45 A2D4 20				.byte	$20		; ChCvt2
    46 A2D5 60				rts			; Exp catch all
    47 A2D6 00 00			.word	0
    48 A2D8 60				rts			; Dcl catch all
    49 A2D9 00 00			.word	0
    50 A2DB 60				rts			; CodeGen catch all
    51 A2DC 00 00			.word	0
    52 A2DE 60				rts			; ArrRef Catch all
    53 A2DF 00 00		zero	.word	0
    54 A2E1 60				rts			; SPLEnd
    55 A2E2 00 00			.word	0
    56 A2E4 4C 57 B3			jmp	screen.scrbell	; Alarm
    57 A2E7 00				.byte	0		; EOLch (default = space)
    58 A2E8 C0 B5			.word	mainmsc.lsh1.lshift	; LSH
    59 A2EA E6 A0			.word	libmath.rshift
    60 A2EC 00 A0			.word	libmath.multi
    61 A2EE 90 A0			.word	libmath.divi
    62 A2F0 DE A0			.word	libmath.remi
    63 A2F2 F5 A0			.word	libmath.sargs
    64 A2F4 60				.byte	$60		; ChCvt3
    65 A2F5 22				.byte	$22		; tvDisp
    66 A2F6 4C 2C A4			jmp	chr.insrtch	; normal char
    67 A2F9 60				rts			; ctrl-shift char
    68
    69 					.if	.def rom
    70 A2FA 00 0A		serial	.word	rom.serial	; serial number of ROM
    71 								; to be filled in before blowing ROM
    72 					.else
    73 					.word	$0000		; Filler to keep the addresses stable
    74 					.endif
    75
    76 A2FC 4C C5 B3			jmp	compiler.lexicon.getnext.ismt	; STM catch all
    77 A2FF 60				rts			; illegal monitor cmd
    78 A300 86				.byte	$86
    79 A301 9D				.byte	$9d
    80 A302 6C A1			.word	istmres		; STMrAdr in EDIT.DEF
    81 					.endl
    82
    83 A304				m_info emjmps
Macro: M_INFO [Source: ACTION.DEF.asm]
     1 					.print "EMJMPS: " , EMJMPS, " - ", EMJMPS + .len EMJMPS -1, " (", .len EMJMPS,")"
     1 				EMJMPS: $A2CA - $A303 ($003A)
Source: EDIT.CAR.asm
    84
    85 				;Init RTS
    86
    87 A304			start	.proc
    88 A304 20 1E A8			jsr	editio.initkeys	; get keyboard
    89 A307 A5 08			lda	warmst
    90 A309 F0 12			beq	cold
    91 A30B AD F0 04			lda	chcvt3
    92 A30E C9 60			cmp	#$60		; make sure RAM initialized
    93 A310 D0 0B			bne	cold
    94
    95 				;??warm
    96 A312 AD 96 04			lda	vars.mpc	; see where we were
    97 A315 F0 03			beq	??w1
    98 A317 4C 0D AD			jmp	monitor.mon1	; monitor
    99 A31A 4C B1 A1		??w1	jmp	mem.punt	; editor
   100 					.endp
   101
   102 A31D			cold	.proc
   103 A31D A9 00			lda	#0
   104 A31F A8				tay	
   105 A320 99 80 04		??c0	sta	$0480,y		; zero 1 page of RAM
   106 A323 88				dey	
   107 A324 D0 FA			bne	??c0
   108
   109 A326 A0 3A			ldy	#.len emjmps
   110 A328 B9 C9 A2		??cold1	lda	emjmps-1,y	; init RAM
   111 A32B 88				dey	
   112 A32C 99 C6 04			sta	jmps,y
   113 A32F D0 F7			bne	??cold1
   114 				; STY ChCvt1 ; Y=0
   115
   116 A331 20 6D A6			jsr	einit		; init editor
   117
   118 A334			SPLInit .proc ; init compiler RAM	;TODO This should be a subroutine
   119
   120 					.if	.def ramzap
   121 					.if	ramzap
   122 A334 20 B6 A3			jsr	editmain.fmcmd.zap4
   123 					.else	
   124 					nop	
   125 					nop	
   126 					nop	
   127 					.endif
   128 					.endif
   129
   130 A337 A2 08			ldx	#stsp_pages	; 2K id space
   131 A339 8E 95 04			stx	vars.stsp
   132
   133 A33C A9 00			lda	#0
   134 A33E A2 04			ldx	#4
   135 A340 AC C4 04			ldy	vars.bigst	; big s.t. ?
   136 A343 F0 02			beq	??si1		; no
   137 A345 A2 06			ldx	#6
   138 A347 20 7E A1		??si1	jsr	mem.getmem	; get hash table
   139 A34A 85 B1			sta	stglobal	; qglobal hash table
   140 A34C 86 B2			stx	stglobal+1
   141 A34E AC C4 04			ldy	vars.bigst	; big s.t. ?
   142 A351 F0 06			beq	??si2		; no
   143 A353 E8				inx	
   144 A354 E8				inx	
   145 A355 85 CE			sta	stg2		; big s.t. hash table
   146 A357 86 CF			stx	stg2+1
   147 A359 E8			??si2	inx	
   148 A35A E8				inx	
   149 A35B 85 B3			sta	stlocal		; local hash table
   150 A35D 86 B4			stx	stlocal+1
   151 A35F				m_assert_next editmain.floop
Macro: M_ASSERT_NEXT [Source: ACTION.DEF.asm]
Source: EDIT.CAR.asm
   152 				; RTS
   153 					.endp
   154
   155 					.endp
   284 A35F				icl "EDIT.MAN.asm"
Source: EDIT.MAN.asm
     1 				;
     2 				;	EDIT.MAN
     3 				;
     4 				; Copyright 1983 by Clinton W Parker.
     5 				; All Rights Reserved.
     6 				; Original last modified July 27, 1983.
     7 				;
     8 				; This file is part of Action!.
     9 				;
    10 				; Action! is free software: you can redistribute it and/or modify
    11 				; it under the terms of the GNU General Public License as published by
    12 				; the Free Software Foundation, either version 3 of the License, or
    13 				; (at your option) any later version.
    14 				;
    15 				; Action! is distributed in the hope that it will be useful,
    16 				; but WITHOUT ANY WARRANTY; without even the implied warranty of
    17 				; MERCHANTABILITY or FITNESS FOR A PARTICULAR PURPOSE.  See the
    18 				; GNU General Public License for more details.
    19 				;
    20 				; You should have received a copy of the GNU General Public License
    21 				; along with Action!.  If not, see <http://www.gnu.org/licenses/>.
    22 				;
    23 				; @com.wudsn.ide.asm.mainsourcefile=../ACTION.asm
    24
    25 A35F				.proc editmain
    26
    27 A35F			floop	.proc			; Main program for EDIT/FLASH
    28 A35F AD A6 04			lda	vars.allocerr
    29 A362 F0 07			beq	??fm1
    30 A364 A9 1D			lda	#<outmem
    31 A366 A2 A4			ldx	#>outmem
    32 A368 20 38 A9			jsr	dsp.cmdmsg
    33
    34 A36B AD A2 04		??fm1	lda	vars.curch
    35 A36E 8D A1 04			sta	vars.lastch
    36 A371 20 7A B8			jsr	mainbnk.getkey
    37
    38 A374 20 A8 A6			jsr	fcmsg1
    39 A377 AD A2 04			lda	vars.curch
    40
    41 A37A AC F2 02			ldy	ch1
    42 A37D C0 C0			cpy	#$c0		; Ctrl-Shft
    43 A37F B0 11			bcs	??fmcs
    44
    45 A381 AC A1 04			ldy	vars.lastch
    46 A384 C0 1B			cpy	#character.escape ; Escape
    47 A386 D0 10			bne	??fmch
    48 A388 C9 9B			cmp	#eol
    49 A38A F0 D3			beq	floop
    50 A38C 20 2C A4			jsr	chr.insrtch
    51 A38F 4C 5F A3			jmp	floop
    52
    53 A392 A2 D5		??fmcs	ldx	#<fmcscmd
    54 A394 A0 A3			ldy	#>fmcscmd
    55 A396 D0 04			bne	??fmlu
    56
    57 A398 A2 A2		??fmch	ldx	#<fmcmd
    58 A39A A0 A3			ldy	#>fmcmd
    59
    60 A39C 20 F4 B6		??fmlu	jsr	mainmsc.lookup
    61 A39F 4C 5F A3			jmp	floop
    62 					.endp
    63
    64 A3A2			fmcmd	.local
    65 A3A2 F2 04			.word	disptb		; default routine
    66 A3A4 32				.byte	50		; table size
    67 A3A5 0A AB			.word	cmd.scrlup
    68 A3A7 1C				.byte	$1c
    69 A3A8 2A AB			.word	cmd.scrldwn
    70 A3AA 1D				.byte	$1d
    71 A3AB 86 AB			.word	cmd.scrlrt
    72 A3AD 1F				.byte	$1f
    73 A3AE 6B AB			.word	cmd.scrllft
    74 A3B0 1E				.byte	$1e
    75 A3B1 6D A5			.word	chr.delch
    76 A3B3 FE				.byte	$fe
    77 A3B4 9A A5			.word	chr.backsp
    78 A3B6 7E			zap4	.byte	$7e
    79 A3B7 2C A4			.word	chr.insrtch
    80 A3B9 60				.byte	$60
    81 A3BA 7B A4			.word	chr.insrtsp
    82 A3BC FF				.byte	$ff
    83 A3BD EC A4			.word	chr.return
    84 A3BF 9B				.byte	eol
    85 A3C0 13 BA			.word	tab
    86 A3C2 7F				.byte	$7f
    87 A3C3 04 A5			.word	chr.delete
    88 A3C5 9C				.byte	$9c
    89 A3C6 57 AB			.word	cmd.botln.escape
    90 A3C8 1B				.byte	character.escape
    91 A3C9 6A A8			.word	window.clear
    92 A3CB 7D				.byte	character.clear
    93 A3CC 8E A4			.word	chr.insrt
    94 A3CE 9D				.byte	$9d
    95 A3CF 4D BA			.word	tab.settab
    96 A3D1 9F				.byte	$9f
    97 A3D2 5A BA			.word	tab.clrtab
    98 A3D4 9E				.byte	$9e
    99 					.endl
   100
   101
   102 A3D5			fmcscmd	.local
   103 A3D5 F5 04			.word	disptb+3	; default
   104 A3D7 47				.byte	71		; table size
   105 A3D8 1F AA			.word	cmd.front
   106 A3DA F6				.byte	$f6
   107 A3DB 2E AA			.word	cmd.back
   108 A3DD F7				.byte	$f7
   109 A3DE 51 AA			.word	cmd.pgup
   110 A3E0 CE				.byte	$ce
   111 A3E1 5A AA			.word	cmd.pgdwn
   112 A3E3 CF				.byte	$cf
   113 A3E4 B7 AA			.word	cmd.indntl
   114 A3E6 E0				.byte	$e0
   115 A3E7 C0 AA			.word	cmd.indntr
   116 A3E9 E2				.byte	$e2
   117 A3EA 32 A7			.word	editio.fread
   118 A3EC E8				.byte	$e8
   119 A3ED 67 A7			.word	editio.fwrite
   120 A3EF EE				.byte	$ee
   121 A3F0 7B AA			.word	cmd.paste
   122 A3F2 CA				.byte	$ca
   123 A3F3 C9 AA			.word	cmd.insrtt
   124 A3F5 CD				.byte	$cd
   125 A3F6 FC AC			.word	monitor
   126 A3F8 E5				.byte	$e5
   127 A3F9 D8 B8			.word	find
   128 A3FB F8				.byte	$f8
   129 A3FC 63 B9			.word	subst
   130 A3FE FE				.byte	$fe
   131 A3FF 39 A8			.word	window.wind1
   132 A401 DF				.byte	$df
   133 A402 48 A8			.word	window.wind2
   134 A404 DE				.byte	$de
   135 A405 AA A8			.word	window.delwd
   136 A407 FA				.byte	$fa
   137 A408 B5 A5			.word	chr.csbs		; Control-Shift-Backspace
   138 A40A F4				.byte	$f4
   139 A40B A9 A4			.word	chr.csret		; Control-Shift-Return
   140 A40D CC				.byte	$cc
   141 A40E 67 A5			.word	chr.undo
   142 A410 CB				.byte	$cb
   143 A411 BE A9			.word	dsp.topln
   144 A413 F9				.byte	$f9
   145 A414 88 A9			.word	dsp.endln
   146 A416 EA				.byte	$ea
   147 A417 E5 AB			.word	tag.settag
   148 A419 ED				.byte	$ed
   149 A41A 57 AC			.word	tag.loctag
   150 A41C FD				.byte	$fd
   151 					.endl
   152
   153 A41D			outmem	.local
   154 A41D 0E				.byte  .len text
   155 A41E				.local text
   156 A41E 20				.byte ' '
   157 A41F CF F5 F4			.by	+$80 'Out'
   158 A422 20				.byte	' '
   159 A423 EF E6			.by	+$80 'of'
   160 A425 20				.byte	' '
   161 A426 CD E5 ED EF F2 F9		.by	+$80 'Memory'
   162 					.endl
   163 					.endl
   164
   165 					.endp
   285 A42C				icl "EDIT.CHR.asm"
Source: EDIT.CHR.asm
     1 				;
     2 				;	EDIT.CAR
     3 				;
     4 				; Copyright 1983 by Clinton W Parker.
     5 				; All Rights Reserved.
     6 				; Original last modified September 8, 1983.
     7 				;
     8 				; This file is part of Action!.
     9 				;
    10 				; Action! is free software: you can redistribute it and/or modify
    11 				; it under the terms of the GNU General Public License as published by
    12 				; the Free Software Foundation, either version 3 of the License, or
    13 				; (at your option) any later version.
    14 				;
    15 				; Action! is distributed in the hope that it will be useful,
    16 				; but WITHOUT ANY WARRANTY; without even the implied warranty of
    17 				; MERCHANTABILITY or FITNESS FOR A PARTICULAR PURPOSE.  See the
    18 				; GNU General Public License for more details.
    19 				;
    20 				; You should have received a copy of the GNU General Public License
    21 				; along with Action!.  If not, see <http://www.gnu.org/licenses/>.
    22 				;
    23 				; @com.wudsn.ide.asm.mainsourcefile=../ACTION.asm
    24
    25 A42C				.proc chr		; Character buffer handling
    26
    27 A42C			insrtch	.proc			; InsrtCh() char in curCh
    28 A42C 20 9C AB			jsr	cmd.setsp
    29 				;??padbuf
    30 A42F A0 00			ldy	#0
    31 A431 B1 9B			lda	(buf),y
    32 A433 CD CF 04			cmp	linemax
    33 A436 90 07			bcc	??pbuf0		; test line too long
    34 A438 20 57 B3			jsr	screen.scrbell
    35 A43B A0 00			ldy	#0
    36 A43D B1 9B			lda	(buf),y
    37 A43F C5 8C		??pbuf0	cmp	sp
    38 A441 B0 22			bcs	??pbuf2
    39 A443 85 A0			sta	arg0
    40 A445 A5 8C			lda	sp
    41 A447 91 9B			sta	(buf),y
    42 A449 A4 A0			ldy	arg0
    43 A44B A9 20			lda	#' '			; pad with spaces
    44 A44D C8			??pbuf1	iny	
    45 A44E 91 9B			sta	(buf),y
    46 A450 C4 8C			cpy	sp
    47 A452 90 F9			bcc	??pbuf1
    48 A454 A4 8C		??pbret	ldy	sp
    49 A456 AD A2 04			lda	vars.curch
    50 A459 91 9B			sta	(buf),y
    51 A45B A9 FF			lda	#$ff
    52 A45D 85 C3			sta	dirtyf
    53 A45F 20 DD B2			jsr	mainio.dspbuf
    54 A462 4C 86 AB			jmp	cmd.scrlrt
    55
    56 A465 A6 9D		??pbuf2	ldx	insert
    57 A467 F0 EB			beq	??pbret
    58 				; move buf right one char
    59 				;??movert
    60 A469 69 00			adc	#0	; really 1, carry set
    61 A46B 91 9B			sta	(buf),y
    62 A46D A8				tay	
    63 A46E 88			??mrt1	dey	
    64 A46F B1 9B			lda	(buf),y
    65 A471 C8				iny	
    66 A472 91 9B			sta	(buf),y
    67 A474 88				dey	
    68 A475 C4 8C			cpy	sp
    69 A477 D0 F5			bne	??mrt1
    70 A479 F0 D9			beq	??pbret		; unconditional branch
    71 					.endp
    72
    73 A47B			insrtsp	.proc			; InsrtSp()
    74 A47B A5 9D			lda	insert
    75 A47D 48				pha	
    76 A47E A9 20			lda	#$20
    77 A480 85 9D			sta	insert
    78 A482 8D A2 04			sta	vars.curch
    79 A485 20 2C A4			jsr	insrtch
    80 A488 68				pla	
    81 A489 85 9D			sta	insert
    82 A48B 4C 5B B3			jmp	screen.scrlft
    83 					.endp
    84
    85 A48E			insrt	.proc			; Insrt()
    86 A48E 20 4B A9			jsr	dsp.clnln
    87 A491 20 CF B5			jsr	mainmsc.editor.nextup
    88 A494 85 95			sta	cur+1		; tricky
    89 A496 20 9E A4			jsr	insert2
    90 A499 A9 00			lda	#0
    91 A49B 4C C8 A9			jmp	dsp.newpage.npage1
    92
    93 A49E A9 00		insert2	lda	#0
    94 A4A0 A8				tay	
    95 A4A1 91 9B		insert3	sta	(buf),y
    96 A4A3 C8				iny	
    97 A4A4 84 8F			sty	dirty
    98 A4A6 4C C0 A1			jmp	mem.instb
    99 					.endp
   100
   101 A4A9			csret	.proc			; Control-Shift-Return
   102 				; handle pad if any
   103 A4A9 20 7B A4			jsr	insrtsp
   104 A4AC 20 6D A5			jsr	delch
   105
   106 A4AF A0 00			ldy	#0
   107 A4B1 B1 9B			lda	(buf),y
   108 A4B3 48				pha	
   109 A4B4 20 9C AB			jsr	cmd.setsp
   110 A4B7 85 C3			sta	dirtyf		; always non-zero
   111 A4B9 38				sec	
   112 A4BA E9 01			sbc	#1
   113 A4BC 91 9B			sta	(buf),y
   114 A4BE 20 4B A9			jsr	dsp.clnln
   115
   116 A4C1 68				pla	
   117 A4C2 85 A1			sta	arg1
   118 A4C4 E6 A1			inc	arg1
   119 A4C6 A9 00			lda	#0
   120 A4C8 85 A0			sta	arg0
   121 A4CA F0 0A			beq	??csr2
   122 A4CC B1 9B		??csr1	lda	(buf),y
   123 A4CE E6 A0			inc	arg0
   124 A4D0 A4 A0			ldy	arg0
   125 A4D2 91 9B			sta	(buf),y
   126 A4D4 E6 8C			inc	sp
   127 A4D6 A4 8C		??csr2	ldy	sp
   128 A4D8 C4 A1			cpy	arg1
   129 A4DA 90 F0			bcc	??csr1
   130
   131 A4DC A0 00			ldy	#0
   132 A4DE A5 A0			lda	arg0
   133 A4E0 20 A1 A4			jsr	insrt.insert3
   134 A4E3 20 CF B5			jsr	mainmsc.editor.nextup
   135 A4E6 20 D1 A9			jsr	dsp.refresh
   136 A4E9 4C FE A4			jmp	return.ret2
   137 					.endp
   138
   139 A4EC			return	.proc			; Return()
   140 A4EC A6 9D			ldx	insert
   141 A4EE D0 B9			bne	csret
   142 A4F0 20 90 A5			jsr	chkdwn
   143 A4F3 D0 09			bne	ret2
   144
   145 A4F5 20 9E A4			jsr	insrt.insert2
   146 A4F8 20 CF B5			jsr	mainmsc.editor.nextup
   147 A4FB 20 C2 B2			jsr	mainio.ldbuf
   148 A4FE 20 2A AB		ret2	jsr	cmd.scrldwn
   149 A501 4C 1F AA		ret3	jmp	cmd.front
   150 					.endp
   151
   152 A504			delete	.proc			; Delete()
   153 A504 20 4B A9			jsr	dsp.clnln
   154 A507 AD A7 04			lda	vars.delbuf
   155 A50A AE A8 04			ldx	vars.delbuf+1
   156 A50D 86 8F			stx	dirty
   157 A50F AC A1 04			ldy	vars.lastch
   158 A512 C0 9C			cpy	#$9c
   159 A514 F0 03			beq	??del1
   160 A516 20 4E A5			jsr	delfree
   161 A519 85 A3		??del1	sta	arg3
   162 A51B 86 A4			stx	arg4
   163 A51D 20 D0 A1			jsr	mem.instbuf
   164 A520 20 90 A5			jsr	chkdwn		; last line ?
   165 A523 D0 08			bne	??del2		; no, delete it
   166 A525 A8				tay	
   167 A526 91 9B			sta	(buf),y
   168 A528 C8				iny	
   169 A529 84 C3			sty	dirtyf
   170 A52B D0 D4			bne	return.ret3	; Unconditional branch
   171
   172 A52D 20 62 A2		??del2	jsr	mem.delcur
   173 A530 F0 03			beq	??del3
   174 A532 20 D3 B5			jsr	mainmsc.editor.nextdwn
   175 A535 20 B5 B2		??del3	jsr	mainio.chkcur
   176 A538 A9 00			lda	#0
   177 A53A 4C C8 A9			jmp	dsp.newpage.npage1
   178 					.endp
   179
   180 A53D			deltop	.proc			; DelTop()
   181 A53D AD AB 04			lda	vars.delbuf+4
   182 A540 AE AC 04			ldx	vars.delbuf+5
   183 A543 85 9E			sta	delnxt
   184 A545 86 9F			stx	delnxt+1
   185 A547				m_assert_next delend	; falls into delend
Macro: M_ASSERT_NEXT [Source: ACTION.DEF.asm]
Source: EDIT.CHR.asm
   186 					.endp
   187
   188 A547			delend	.proc			; DelEnd(ptr)
   189 A547 C9 A7			cmp	#<vars.delbuf
   190 A549 D0 02			bne	de1
   191 A54B E0 04			cpx	#>vars.delbuf
   192 A54D 60			de1	rts	
   193 					.endp
   194
   195 A54E			delfree	.proc			; DelFree(bot)
   196 A54E 20 47 A5			jsr	delend
   197 A551 F0 FA			beq	delend.de1	; return
   198 A553 20 6E A2			jsr	mem.delln
   199 A556 D0 F6			bne	delfree		; Unconditional branch
   200 					.endp
   201
   202 A558			delnext	.proc			; DelNext()
   203 A558 A0 05			ldy	#5
   204 A55A B1 9E			lda	(delnxt),y
   205 A55C AA				tax	
   206 A55D 88				dey	
   207 A55E B1 9E			lda	(delnxt),y
   208 A560 85 9E			sta	delnxt
   209 A562 86 9F			stx	delnxt+1
   210 A564 4C 47 A5			jmp	delend
   211 					.endp
   212
   213 A567			undo	.proc			;Undo()
   214 A567 20 C2 B2			jsr	mainio.ldbuf
   215 A56A 4C 1F AA			jmp	cmd.front
   216 					.endp
   217
   218 A56D			delch	.proc			; DeleteCh()
   219 A56D 20 58 AB			jsr	cmd.chkcol
   220 A570 90 27			bcc	chkdwn.cdwn1
   221 A572 A0 00			ldy	#0
   222 A574 B1 9B			lda	(buf),y
   223 A576 85 C3			sta	dirtyf
   224 A578 38				sec	
   225 A579 E9 01			sbc	#1
   226 A57B 91 9B			sta	(buf),y
   227 A57D A4 8C			ldy	sp
   228 A57F C8			??dch1	iny	
   229 A580 B1 9B			lda	(buf),y
   230 A582 88				dey	
   231 A583 91 9B			sta	(buf),y
   232 A585 C8				iny	
   233 A586 C4 C3			cpy	dirtyf
   234 A588 90 F5			bcc	??dch1		; really checking for =
   235 A58A				m_assert_next rfrshbuf	; falls into rfrshbuf
Macro: M_ASSERT_NEXT [Source: ACTION.DEF.asm]
Source: EDIT.CHR.asm
   236 					.endp
   237 A58A			rfrshbuf	.proc		; RfrshBuf()
   238 A58A 20 DD B2			jsr	mainio.dspbuf
   239 A58D 4C AF B2			jmp	mainio.rstcol.lftrt
   240 					.endp
   241
   242 A590			chkdwn	.proc			; ChkDwn()
   243 A590 20 4B A9			jsr	dsp.clnln
   244 A593 F0 04			beq	cdwn1
   245 A595 A0 05			ldy	#5
   246 A597 B1 94			lda	(cur),y
   247 A599 60			cdwn1	rts	
   248 					.endp
   249
   250 A59A			backsp	.proc			; BackSp()
   251 A59A 20 9C AB			jsr	cmd.setsp
   252 A59D C9 02			cmp	#2
   253 A59F 90 F8			bcc	chkdwn.cdwn1
   254 A5A1 20 6B AB		bsp1	jsr	cmd.scrllft
   255 A5A4 20 9C AB			jsr	cmd.setsp
   256 A5A7 A8				tay	
   257 A5A8 A9 20			lda	#' '
   258 A5AA 91 9B			sta	(buf),y
   259 A5AC 85 C3			sta	dirtyf
   260 A5AE A5 9D			lda	insert
   261 A5B0 D0 BB			bne	delch
   262 A5B2 4C 8A A5			jmp	rfrshbuf
   263 					.endp
   264
   265 A5B5			csbs	.proc			; Control-Shift-Backspace
   266 A5B5 20 9C AB			jsr	cmd.setsp
   267 A5B8 C9 02			cmp	#2
   268 A5BA B0 E5			bcs	backsp.bsp1
   269 A5BC 20 B5 B2			jsr	mainio.chkcur
   270 A5BF F0 D8			beq	chkdwn.cdwn1	; no lines at all!
   271 A5C1 A0 01			ldy	#1
   272 A5C3 B1 94			lda	(cur),y
   273 A5C5 F0 D2			beq	chkdwn.cdwn1	; no line to merge with
   274 				; merge
   275 A5C7 20 0A AB			jsr	cmd.scrlup
   276 A5CA 20 2E AA			jsr	cmd.back
   277 A5CD 20 D3 B5			jsr	mainmsc.editor.nextdwn
   278 A5D0 85 C3			sta	dirtyf
   279 A5D2 20 E8 B5			jsr	mainmsc.editor.curstr
   280 A5D5 18				clc	
   281 A5D6 A0 00			ldy	#0
   282 A5D8 B1 9B			lda	(buf),y
   283 A5DA 85 A2			sta	arg2
   284 A5DC 71 A0			adc	(arg0),y
   285 A5DE 91 9B			sta	(buf),y
   286 A5E0 B1 A0			lda	(arg0),y
   287 A5E2 F0 13			beq	??cb2
   288 A5E4 85 A3			sta	arg3
   289 A5E6 C8			??cb1	iny	
   290 A5E7 84 A4			sty	arg4
   291 A5E9 B1 A0			lda	(arg0),y
   292 A5EB E6 A2			inc	arg2
   293 A5ED A4 A2			ldy	arg2
   294 A5EF 91 9B			sta	(buf),y
   295 A5F1 A4 A4			ldy	arg4
   296 A5F3 C4 A3			cpy	arg3
   297 A5F5 D0 EF			bne	??cb1
   298 A5F7 20 62 A2		??cb2	jsr	mem.delcur
   299 A5FA 4C D1 A9			jmp	dsp.refresh
   300 					.endp
   301
   302 					.endp			; End of chr
   286 A5FD				icl "EDIT.INI.asm"
Source: EDIT.INI.asm
     1 				;
     2 				;	EDIT.INI
     3 				;
     4 				; Copyright 1983 by Clinton W Parker.
     5 				; All Rights Reserved.
     6 				; Original last modified May 19, 1983.
     7 				;
     8 				; This file is part of Action!.
     9 				;
    10 				; Action! is free software: you can redistribute it and/or modify
    11 				; it under the terms of the GNU General Public License as published by
    12 				; the Free Software Foundation, either version 3 of the License, or
    13 				; (at your option) any later version.
    14 				;
    15 				; Action! is distributed in the hope that it will be useful,
    16 				; but WITHOUT ANY WARRANTY; without even the implied warranty of
    17 				; MERCHANTABILITY or FITNESS FOR A PARTICULAR PURPOSE.  See the
    18 				; GNU General Public License for more details.
    19 				;
    20 				; You should have received a copy of the GNU General Public License
    21 				; along with Action!.  If not, see <http://www.gnu.org/licenses/>.
    22 				;
    23 				; @com.wudsn.ide.asm.mainsourcefile=../ACTION.asm
    24
    25 A5FD			minit	.proc			; initialize memory
    26 A5FD AD E7 02			lda	memlo
    27 A600 85 80			sta	afbase
    28 A602 AD E8 02			lda	memlo+1
    29 A605 85 81			sta	afbase+1
    30 A607 A9 00			lda	#0
    31 A609 A8				tay	
    32 A60A 91 80			sta	(afbase),y
    33 A60C C8				iny	
    34 A60D 91 80			sta	(afbase),y
    35 A60F 38				sec	
    36 A610 AD E5 02			lda	memtop
    37 A613 E5 80			sbc	afbase
    38 A615 C8				iny	
    39 A616 91 80			sta	(afbase),y
    40 A618 AD E6 02			lda	memtop+1
    41 A61B E5 81			sbc	afbase+1
    42 A61D C8				iny	
    43 A61E 91 80			sta	(afbase),y
    44
    45 A620 A9 00			lda	#0		; allocate 2 pages of
    46 A622 A2 02			ldx	#2		; spare memory
    47 A624 20 00 A0			jsr	allocate
    48 A627 A5 84			lda	afcur
    49 A629 8D A3 04			sta	vars.sparem
    50 A62C A6 85			ldx	afcur+1
    51 A62E 8E A4 04			stx	vars.sparem+1
    52 A631 60				rts	
    53 					.endp
    54
    55 A632			zerow	.proc			; initialize window
    56 A632 A9 00			lda	#0
    57 A634 A2 0F			ldx	#15
    58 A636 CA			??zw1	dex			; zero page0 window table
    59 A637 95 8C			sta	sp,x
    60 A639 D0 FB			bne	??zw1
    61 A63B 85 C3			sta	dirtyf
    62 A63D 8D C8 05			sta	inbuf
    63 A640 A8				tay	
    64 A641 91 9B			sta	(buf),y
    65 A643 60				rts	
    66 					.endp
    67
    68 A644			w2init	.proc			; W2Init()
    69 A644 20 93 A9			jsr	dsp.ctrln
    70 A647 AD CE 04			lda	wsize
    71 A64A 85 98			sta	nlines
    72 A64C 8D 9C 04			sta	vars.cmdln
    73 A64F 20 5A A8			jsr	window.savworld
    74 A652 A9 31			lda	#vars.w2-vars.w1
    75 A654 8D A5 04			sta	vars.numwd
    76 A657 8D 9F 04			sta	vars.curwdw
    77 A65A 20 32 A6			jsr	zerow
    78 A65D AC CE 04			ldy	wsize
    79 A660 C8				iny	
    80 A661 84 99			sty	ytop
    81 A663 38				sec	
    82 A664 A9 17			lda	#23
    83 A666 ED CE 04			sbc	wsize
    84 A669 85 98			sta	nlines
    85 A66B D0 38			bne	fcmsg		; Unconditional branch
    86 					.endp
    87
    88 A66D 20 FD A5		einit	jsr	minit
    89
    90 A670 A9 00			lda	#0
    91 A672 A2 01			ldx	#1
    92 A674 20 00 A0			jsr	allocate	; get edit buffer
    93 A677 A5 84			lda	afcur
    94 A679 85 9B			sta	buf
    95 A67B A6 85			ldx	afcur+1
    96 A67D 86 9C			stx	buf+1
    97
    98 A67F A9 40			lda	#$40
    99 A681 8D 90 04			sta	vars.chcvt
   100
   101 A684 A9 A7			lda	#<vars.delbuf
   102 A686 8D A7 04			sta	vars.delbuf
   103 A689 8D AB 04			sta	vars.delbuf+4
   104 A68C A9 04			lda	#>vars.delbuf
   105 A68E 8D A8 04			sta	vars.delbuf+1
   106 A691 8D AC 04			sta	vars.delbuf+5
   107
   108 A694 20 32 A6		winit	jsr	zerow
   109
   110 A697 A9 17		winit1	lda	#23
   111 A699 85 98			sta	nlines
   112 A69B 8D 9C 04			sta	vars.cmdln
   113 A69E A9 00			lda	#0
   114 A6A0 8D 9F 04			sta	vars.curwdw
   115 A6A3 85 99			sta	ytop
   116
   117 A6A5 20 93 A9		fcmsg	jsr	dsp.ctrln
   118 A6A8 A9 AF		fcmsg1	lda	#<editc
   119 A6AA A2 A6			ldx	#>editc
   120 A6AC 4C 38 A9			jmp	dsp.cmdmsg
   121
   122 				editc	.if	feature_build_version = 1
   123 					.byte	.len build
   124 					.local	build
   125 					.byte	'ACTION! V3.7', feature_build_type, ' build '
   126 					ins	"ACTION-Core.build",+0,16
   127 					.endl
   128 					.else
   129 A6AF				m_string 'ACTION! (c)1983 ACS'
Macro: M_STRING [Source: ACTION.DEF.asm]
     1 A6AF 13				.byte [.len string]
     3 A6B0 41 43 54 49 4F 4E + 	.byte 'ACTION! (c)1983 ACS'
Source: EDIT.INI.asm
   130 					.endif
   287 A6C3				icl "EDIT.IO.asm"
Source: EDIT.IO.asm
     1 				;
     2 				;	EDIT.INI
     3 				;
     4 				; Copyright 1983 by Clinton W Parker.
     5 				; All Rights Reserved.
     6 				; Original last modified July 29, 1983.
     7 				;
     8 				; This file is part of Action!.
     9 				;
    10 				; Action! is free software: you can redistribute it and/or modify
    11 				; it under the terms of the GNU General Public License as published by
    12 				; the Free Software Foundation, either version 3 of the License, or
    13 				; (at your option) any later version.
    14 				;
    15 				; Action! is distributed in the hope that it will be useful,
    16 				; but WITHOUT ANY WARRANTY; without even the implied warranty of
    17 				; MERCHANTABILITY or FITNESS FOR A PARTICULAR PURPOSE.  See the
    18 				; GNU General Public License for more details.
    19 				;
    20 				; You should have received a copy of the GNU General Public License
    21 				; along with Action!.  If not, see <http://www.gnu.org/licenses/>.
    22 				;
    23 				; @com.wudsn.ide.asm.mainsourcefile=../ACTION.asm
    24
    25 A6C3				.proc editio
    26
    27 A6C3			getstr	.proc			; GetStr(prompt, str, invert)
    28 A6C3 20 74 B0			jsr	mainio.dspstr
    29 A6C6 20 7A B8		??gs1	jsr	mainbnk.getkey
    30 A6C9 AA				tax	
    31
    32 A6CA E0 7E			cpx	#character.backspace
    33 A6CC F0 3C			beq	??gs3		; backspace
    34
    35 A6CE E0 7D			cpx	#character.clear
    36 A6D0 F0 38			beq	??gs3		; clear
    37
    38 A6D2 A0 00		??gs1a	ldy	#0
    39 A6D4 18				clc	
    40 A6D5 B1 AC			lda	(arg12),y
    41 A6D7 69 01			adc	#1
    42
    43 A6D9 E0 1B			cpx	#character.escape ; ESC
    44 A6DB F0 1F			beq	??gs1b
    45
    46 A6DD E0 9B			cpx	#eol
    47 A6DF F0 24			beq	??gs2
    48
    49 A6E1 C4 A3			cpy	arg3		; first char?
    50 A6E3 F0 25			beq	??gs3		; yes, clear line
    51
    52 A6E5 86 A3			stx	arg3
    53 A6E7 A6 55			ldx	colcrs
    54 A6E9 E4 53			cpx	rmargin
    55 A6EB B0 D9			bcs	??gs1		; don't go off screen
    56
    57 A6ED 91 AC			sta	(arg12),y
    58 A6EF A8				tay	
    59 A6F0 A5 A3			lda	arg3
    60 A6F2 91 AC			sta	(arg12),y
    61 A6F4 45 A2			eor	arg2
    62 A6F6 20 2B B3			jsr	screen.scrch
    63 A6F9 4C C6 A6			jmp	??gs1
    64
    65 A6FC A9 00		??gs1b	lda	#0
    66 A6FE 8D A2 04			sta	vars.curch
    67 A701 91 AC			sta	(arg12),y
    68 A703 C8				iny	
    69 A704 98				tya	
    70 A705 A8			??gs2	tay	
    71 A706 8A				txa			; EOL
    72 A707 91 AC			sta	(arg12),y
    73 A709 60				rts	
    74
    75 A70A 86 A3		??gs3	stx	arg3
    76 A70C A0 00		??gs4	ldy	#0
    77 A70E B1 AC			lda	(arg12),y
    78 A710 F0 1A			beq	??gs5
    79 A712 38				sec	
    80 A713 E9 01			sbc	#1
    81 A715 91 AC			sta	(arg12),y
    82
    83 A717 20 5B B3			jsr	screen.scrlft
    84
    85 A71A A9 20			lda	#$20
    86 A71C 45 A2			eor	arg2
    87 A71E 20 2B B3			jsr	screen.scrch
    88
    89 A721 20 5B B3			jsr	screen.scrlft
    90 A724 A6 A3			ldx	arg3
    91 A726 E0 7E			cpx	#$7e
    92 A728 D0 E2			bne	??gs4
    93 A72A F0 9A			beq	??gs1
    94
    95 A72C E0 7D		??gs5	cpx	#$7d
    96 A72E F0 96			beq	??gs1
    97 A730 D0 A0			bne	??gs1a		; Unconditional branch
    98 					.endp
    99
   100 A732			fread	.proc			; FRead()
   101 A732 A9 00			lda	#0
   102 A734 8D C8 05			sta	inbuf
   103 A737 A9 60			lda	#<rdmsg
   104 A739 A2 A7			ldx	#>rdmsg
   105 A73B A0 04			ldy	#4
   106 A73D 20 A4 A7			jsr	fopen
   107
   108 A740 A9 01		??frd1	lda	#1
   109 A742 20 A7 B0			jsr	mainio.rdbuf
   110 A745 30 0C			bmi	??fr3
   111 A747 20 C0 A1			jsr	mem.instb
   112 A74A AD A6 04			lda	vars.allocerr
   113 A74D F0 F1			beq	??frd1
   114 A74F A0 16			ldy	#compiler.errors.fileer	; file too big
   115 A751 D0 04			bne	??fr4
   116
   117 A753 C0 88		??fr3	cpy	#cio_error.eof	; EOF
   118 A755 F0 03			beq	??fr5
   119 A757 20 E1 B0		??fr4	jsr	mainio.syserr
   120 A75A 20 8B A7		??fr5	jsr	fwrite.fw2
   121 A75D 4C 93 A9			jmp	dsp.ctrln
   122
   123 A760			rdmsg	m_string 'Read? '
Macro: M_STRING [Source: ACTION.DEF.asm]
     1 A760 06				.byte [.len string]
     3 A761 52 65 61 64 3F 20		.byte 'Read? '
Source: EDIT.IO.asm
   124 					.endp
   125
   126 A767			fwrite	.proc			; FWrite()
   127 A767 A9 9C			lda	#<wrtmsg
   128 A769 A2 A7			ldx	#>wrtmsg
   129 A76B A0 08			ldy	#8
   130 A76D 20 A4 A7			jsr	fopen
   131
   132 A770 20 B9 B2			jsr	mainio.chkcur.ldtop
   133 A773 F0 21			beq	??fw3
   134 A775 20 C2 B2		??fw1	jsr	mainio.ldbuf
   135
   136 				; INC COLOR4 ; let user know we're here
   137 A778 EA				nop	;TODO Remove to free RAM
   138 A779 EA				nop	
   139 A77A EA				nop	
   140
   141 A77B A9 01			lda	#1
   142 A77D 20 CA B0			jsr	mainio.wrtbuf
   143 A780 30 14			bmi	??fw3
   144 A782 20 D3 B5			jsr	mainmsc.editor.nextdwn
   145 A785 D0 EE			bne	??fw1
   146
   147 A787 A9 00			lda	#0
   148 A789 85 8F			sta	dirty
   149 A78B A9 01		fw2	lda	#1
   150 A78D 20 26 B0			jsr	mainio.close
   151 A790 20 D1 B0			jsr	mainio.rstcur
   152 A793 4C 39 B1			jmp	mainio.dspon
   153
   154 A796 20 E1 B0		??fw3	jsr	mainio.syserr
   155 A799 4C 8B A7			jmp	fw2
   156
   157 A79C			wrtmsg	m_string 'Write? '
Macro: M_STRING [Source: ACTION.DEF.asm]
     1 A79C 07				.byte [.len string]
     3 A79D 57 72 69 74 65 3F + 	.byte 'Write? '
Source: EDIT.IO.asm
   158 					.endp
   159
   160 A7A4			fopen	.proc			; FOpen(prompt, mode)
   161 A7A4 85 AA			sta	arg10
   162 A7A6 86 AB			stx	arg11
   163 A7A8 8C 9E 04			sty	vars.opmode
   164
   165 				; JSR ClnLn ; in SaveWd
   166 A7AB 20 61 A9			jsr	dsp.savewd
   167 A7AE 20 0C B3			jsr	mainio.rstcsr
   168
   169 A7B1 A0 C8			ldy	#<inbuf
   170 A7B3 A9 05			lda	#>inbuf
   171 A7B5 85 A3			sta	arg3
   172 A7B7 A5 AA			lda	arg10
   173 A7B9 A6 AB			ldx	arg11
   174 A7BB 20 0E A9			jsr	window.cmdstr
   175
   176 A7BE A9 01			lda	#1
   177 A7C0 20 26 B0			jsr	mainio.close
   178 A7C3 AC C8 05			ldy	inbuf
   179 A7C6 F0 53			beq	??fo7
   180 A7C8 AE 9E 04			ldx	vars.opmode
   181 A7CB A9 3A			lda	#':'
   182 A7CD CD CA 05			cmp	inbuf+2
   183 A7D0 F0 1A			beq	??fo2
   184 A7D2 CD CB 05			cmp	inbuf+3
   185 A7D5 F0 15			beq	??fo2
   186 A7D7 C8				iny	
   187 A7D8 C8				iny	
   188 A7D9 8C C8 05			sty	inbuf
   189 A7DC B9 C8 05		??fo1	lda	inbuf,y
   190 A7DF 99 CA 05			sta	inbuf+2,y
   191 A7E2 88				dey	
   192 A7E3 D0 F7			bne	??fo1
   193 A7E5 A9 3A			lda	#':'
   194 A7E7 8D CA 05			sta	inbuf+2
   195 A7EA D0 09			bne	??fo3		; unconditional branch
   196
   197 A7EC AD C9 05		??fo2	lda	inbuf+1
   198 A7EF C9 3F			cmp	#'?'		; read directory?
   199 A7F1 D0 07			bne	??fo4		; no
   200 A7F3 A2 06			ldx	#6
   201 A7F5 A9 44		??fo3	lda	#'D'
   202 A7F7 8D C9 05			sta	inbuf+1
   203
   204 A7FA 86 A3		??fo4	stx	arg3
   205 A7FC 20 2F B1			jsr	mainio.dspoff
   206 					.if fix_cio_aux2=1
   207 					mva #0  arg4		; Set AUX2=0
   208 					lda	#1		; Channel
   209 					.else
   210 A7FF A9 01			lda	#1		; Channel
   211 A801 85 A4			sta	arg4		; clear high bit for cassette
   212 					.endif
   213 A803 A2 C8			ldx	#<inbuf
   214 A805 A0 05			ldy	#>inbuf
   215 A807 20 04 B0			jsr	mainio.open
   216 A80A 30 0A			bmi	??fo6
   217 A80C A5 A3			lda	arg3		; see if directory
   218 A80E 49 06			eor	#6
   219 A810 D0 03			bne	??fo5
   220 A812 8D C8 05			sta	inbuf		; clear inbuf
   221 A815 60			??fo5	rts	
   222
   223 A816 68			??fo6	pla	
   224 A817 68				pla			; pop return
   225 A818 4C E1 B0			jmp	mainio.syserr
   226
   227 A81B 68			??fo7	pla	
   228 A81C 68				pla	
   229 A81D 60				rts	
   230 					.endp
   231
   232 A81E			initkeys	.proc		; Initialize keyboard
   233 A81E A9 07			lda	#cio_channel.seven
   234 A820 20 26 B0			jsr	mainio.close
   235
   236 A823 A9 04			lda	#cio_mode.read
   237 A825 85 A3			sta	arg3		; read only
   238 A827 A9 07			lda	#cio_channel.seven
   239 A829 A2 30			ldx	#<keybd
   240 A82B A0 A8			ldy	#>keybd
   241 A82D 4C 04 B0			jmp	mainio.open
   242
   243 A830			keybd	m_string 'K:'
Macro: M_STRING [Source: ACTION.DEF.asm]
     1 A830 02				.byte [.len string]
     3 A831 4B 3A			.byte 'K:'
Source: EDIT.IO.asm
   244 					.endp
   245
   246 A833			gotkey	.proc			; Test if key in buffer
   247 A833 AD FC 02			lda	ch		; key down?
   248 A836 49 FF			eor	#$ff
   249 A838 60				rts
   250 					.endp
   251
   252 					.endp	; End of editio
   288 A839				icl "EDIT.WND.asm"
Source: EDIT.WND.asm
     1 				;
     2 				;	EDIT.WND
     3 				;
     4 				; Copyright 1983 by Clinton W Parker.
     5 				; All Rights Reserved.
     6 				; Original last modified July 6, 1983.
     7 				;
     8 				; This file is part of Action!.
     9 				;
    10 				; Action! is free software: you can redistribute it and/or modify
    11 				; it under the terms of the GNU General Public License as published by
    12 				; the Free Software Foundation, either version 3 of the License, or
    13 				; (at your option) any later version.
    14 				;
    15 				; Action! is distributed in the hope that it will be useful,
    16 				; but WITHOUT ANY WARRANTY; without even the implied warranty of
    17 				; MERCHANTABILITY or FITNESS FOR A PARTICULAR PURPOSE.  See the
    18 				; GNU General Public License for more details.
    19 				;
    20 				; You should have received a copy of the GNU General Public License
    21 				; along with Action!.  If not, see <http://www.gnu.org/licenses/>.
    22 				;
    23 				; @com.wudsn.ide.asm.mainsourcefile=../ACTION.asm
    24
    25 A839				.proc window
    26
    27 A839			wind1	.proc			; Wind1()
    28 A839 AD 9F 04			lda	vars.curwdw
    29 A83C F0 2B			beq	wdret
    30 A83E A9 00			lda	#0
    31 A840 48				pha	
    32 A841				m_assert_next swapwd	; falls into swapwd
Macro: M_ASSERT_NEXT [Source: ACTION.DEF.asm]
Source: EDIT.WND.asm
    33 					.endp
    34
    35 A841			swapwd	.proc			; SwapWd()
    36 A841 20 5A A8			jsr	savworld
    37 A844 68				pla	
    38 A845 4C 9E A8			jmp	rstworld
    39 					.endp
    40
    41 A848			wind2	.proc			; Wind2()
    42 A848 AD 9F 04			lda	vars.curwdw
    43 A84B D0 1C			bne	wdret
    44 A84D AD A5 04			lda	vars.numwd
    45 A850 D0 03			bne	??w2
    46 A852 4C 44 A6			jmp	w2init
    47
    48 A855 A9 31		??w2	lda	#vars.w2-vars.w1
    49 A857 48				pha	
    50 A858 D0 E7			bne	swapwd		; Unconditional branch
    51 					.endp
    52
    53 A85A			savworld	.proc		; SavWorld()
    54 A85A 20 4B A9			jsr	dsp.clnln
    55 A85D 20 9B B2			jsr	mainio.savecol
    56 A860 20 0C B3			jsr	mainio.rstcsr
    57 A863 20 9C AB			jsr	cmd.setsp
    58 A866 4C 61 A9			jmp	dsp.savewd
    59
    60 					.endp
    61
    62 A869 60			wdret	rts			; Return from differen routines nearby
    63
    64
    65 A86A			clear	.proc			; Clear()
    66 A86A 20 E0 04			jsr	alarm
    67 A86D A9 D7			lda	#<clearmsg
    68 A86F A2 A8			ldx	#>clearmsg
    69 A871 20 26 A9			jsr	yesno
    70 A874 D0 F3			bne	wdret
    71 A876 20 4B A9		clr0	jsr	dsp.clnln
    72 A879 A5 8F			lda	dirty
    73 A87B F0 09			beq	clr1
    74 				; JSR Alarm
    75 A87D A9 EF			lda	#<dirtymsg
    76 A87F A2 A8			ldx	#>dirtymsg
    77 A881 20 26 A9			jsr	yesno
    78 A884 D0 E3			bne	wdret
    79 A886 20 B3 AC		clr1	jsr	tag.freetags	; get rid of tags
    80 A889 A5 92			lda	bot
    81 A88B A6 93			ldx	bot+1
    82 A88D 20 6E A2		??clr2	jsr	mem.delln
    83 A890 D0 FB			bne	??clr2
    84 A892 86 95			stx	cur+1
    85 A894 86 8F			stx	dirty
    86 A896 86 C3			stx	dirtyf
    87 A898 8E C8 05			stx	inbuf
    88 A89B 4C C4 A9			jmp	dsp.newpage
    89 					.endp
    90
    91 A89E			rstworld	.proc		; RstWorld(window)
    92 A89E 8D 9F 04			sta	vars.curwdw
    93 A8A1 20 76 A9			jsr	dsp.rstwd
    94 A8A4 20 C2 B2			jsr	mainio.ldbuf
    95 A8A7 4C A4 B2			jmp	mainio.rstcol
    96 					.endp
    97
    98 A8AA			delwd	.proc			; DelWd()
    99 A8AA AD A5 04			lda	vars.numwd
   100 A8AD F0 BA			beq	wdret
   101 A8AF 20 E0 04			jsr	alarm
   102 A8B2 A9 DF			lda	#<delmsg
   103 A8B4 A2 A8			ldx	#>delmsg
   104 A8B6 20 26 A9			jsr	yesno
   105 A8B9 D0 AE			bne	wdret
   106 A8BB 20 76 A8			jsr	clear.clr0
   107 A8BE A5 8F			lda	dirty
   108 A8C0 D0 A7			bne	wdret
   109 A8C2 A0 00			ldy	#0
   110 A8C4 8C A5 04			sty	vars.numwd
   111 A8C7 CC 9F 04			cpy	vars.curwdw
   112 A8CA D0 02			bne	delwd2
   113 A8CC A0 31			ldy	#vars.w2-vars.w1
   114 A8CE 8C 9F 04		delwd2	sty	vars.curwdw
   115 A8D1 20 76 A9			jsr	dsp.rstwd
   116 A8D4 4C 97 A6			jmp	winit1
   117 					.endp
   118
   119 A8D7			clearmsg m_string'CLEAR? '
Macro: M_STRING [Source: ACTION.DEF.asm]
     1 A8D7 07				.byte [.len string]
     3 A8D8 43 4C 45 41 52 3F + 	.byte 'CLEAR? '
Source: EDIT.WND.asm
   120 A8DF			delmsg	 m_string 'Delete window? '
Macro: M_STRING [Source: ACTION.DEF.asm]
     1 A8DF 0F				.byte [.len string]
     3 A8E0 44 65 6C 65 74 65 + 	.byte 'Delete window? '
Source: EDIT.WND.asm
   121 A8EF			dirtymsg m_string'Not saved, Delete? '
Macro: M_STRING [Source: ACTION.DEF.asm]
     1 A8EF 13				.byte [.len string]
     3 A8F0 4E 6F 74 20 73 61 + 	.byte 'Not saved, Delete? '
Source: EDIT.WND.asm
   122
   123 A903			gettemp	.proc			; GetTemp(msg)
   124 A903 A0 00			ldy	#0
   125 A905 8C 90 05		gett1	sty	tempbuf
   126 A908 A0 05			ldy	#>tempbuf
   127 A90A 84 A3			sty	arg3
   128 A90C A0 90			ldy	#<tempbuf
   129 A90E				m_assert_next cmdstr	; falls into cmdstr
Macro: M_ASSERT_NEXT [Source: ACTION.DEF.asm]
Source: EDIT.WND.asm
   130 					.endp
   131
   132 A90E			cmdstr	.proc			; CmdStr(msg, buf)
   133 A90E 85 A0			sta	arg0
   134 A910 84 A2			sty	arg2
   135 A912 20 8F B2			jsr	mainio.cmdcol
   136 A915 A9 80			lda	#$80
   137 A917 85 A4			sta	arg4
   138 A919 A5 A0			lda	arg0
   139 A91B A4 A2			ldy	arg2
   140 A91D 20 C3 A6			jsr	editio.getstr
   141 A920 20 0C B3			jsr	mainio.rstcsr
   142 A923 4C A4 B2			jmp	mainio.rstcol
   143 					.endp
   144
   145 A926			yesno	.proc			; YesNo(msg)
   146 A926 20 03 A9			jsr	gettemp
   147 A929 AC 90 05			ldy	tempbuf
   148 A92C D0 02			bne	??yn1
   149 A92E C8				iny	
   150 A92F 60				rts	
   151
   152 A930 AD 91 05		??yn1	lda	tempbuf+1
   153 A933 09 20			ora	#$20
   154 A935 C9 79			cmp	#'y'
   155 A937 60				rts
   156 					.endp
   157
   158 					.endp			; End of window
   289 A938				icl "EDIT.DSP.asm"
Source: EDIT.DSP.asm
     1 				;
     2 				;	EDIT.CMD
     3 				;
     4 				; Copyright 1983 by Clinton W Parker.
     5 				; All Rights Reserved.
     6 				; Original last modified July 29, 1983.
     7 				;
     8 				; This file is part of Action!.
     9 				;
    10 				; Action! is free software: you can redistribute it and/or modify
    11 				; it under the terms of the GNU General Public License as published by
    12 				; the Free Software Foundation, either version 3 of the License, or
    13 				; (at your option) any later version.
    14 				;
    15 				; Action! is distributed in the hope that it will be useful,
    16 				; but WITHOUT ANY WARRANTY; without even the implied warranty of
    17 				; MERCHANTABILITY or FITNESS FOR A PARTICULAR PURPOSE.  See the
    18 				; GNU General Public License for more details.
    19 				;
    20 				; You should have received a copy of the GNU General Public License
    21 				; along with Action!.  If not, see <http://www.gnu.org/licenses/>.
    22 				;
    23 				; @com.wudsn.ide.asm.mainsourcefile=../ACTION.asm
    24
    25 A938				.proc dsp		; Display handling
    26 					
    27 					
    28 A938			cmdmsg	.proc			; CmdMsg(msg)
    29 A938 85 A0			sta	arg0
    30 A93A 20 8F B2			jsr	mainio.cmdcol
    31 A93D A9 00			lda	#0
    32 A93F 85 A3			sta	arg3
    33 A941 A5 A0			lda	arg0
    34 A943 A0 80			ldy	#screen_definition.inverse
    35 A945 20 05 B2			jsr	mainio.putstr
    36 A948 4C A4 B2			jmp	mainio.rstcol
    37 					.endp
    38
    39 A94B			clnln	.proc			; ClnLn()
    40 A94B 20 B5 B2			jsr	mainio.chkcur
    41 A94E A5 C3			lda	dirtyf
    42 A950 F0 0C			beq	??cll1
    43 A952 85 8F			sta	dirty
    44 A954 A9 00			lda	#0
    45 A956 85 C3			sta	dirtyf
    46 A958 20 62 A2			jsr	mem.delcur
    47 A95B 20 C0 A1			jsr	mem.instb
    48 A95E 4C B5 B2		??cll1	jmp	mainio.chkcur
    49 					.endp
    50
    51 A961			savewd	.proc			; SaveWd()
    52 A961 20 4B A9			jsr	clnln
    53 A964 18			savwd1	clc	
    54 A965 A9 0E			lda	#14
    55 A967 AA				tax	
    56 A968 6D 9F 04			adc	vars.curwdw
    57 A96B A8				tay	
    58 A96C B5 8C		??sw1	lda	sp,x
    59 A96E 99 80 04			sta	vars.w1,y
    60 A971 88				dey	
    61 A972 CA				dex	
    62 A973 10 F7			bpl	??sw1
    63 A975 60				rts	
    64 					.endp
    65
    66 A976			rstwd	.proc			; RstWd() restore window
    67 A976 18				clc	
    68 A977 A9 0E			lda	#14
    69 A979 AA				tax	
    70 A97A 6D 9F 04			adc	vars.curwdw
    71 A97D A8				tay	
    72 A97E B9 80 04		??rw1	lda	vars.w1,y
    73 A981 95 8C			sta	sp,x
    74 A983 88				dey	
    75 A984 CA				dex	
    76 A985 10 F7			bpl	??rw1
    77 A987 60			rw2	rts	
    78 					.endp
    79
    80 A988			endln	.proc			; EndLn()
    81 A988 20 4B A9			jsr	clnln
    82 A98B A5 92			lda	bot
    83 A98D 85 94			sta	cur
    84 A98F A5 93			lda	bot+1
    85 A991 85 95			sta	cur+1
    86 A993				m_assert_next ctrln	; falls into CtrLn
Macro: M_ASSERT_NEXT [Source: ACTION.DEF.asm]
Source: EDIT.DSP.asm
    87 					.endp
    88
    89 A993			ctrln	.proc			; CtrLn() center line
    90 A993 A9 00			lda	#0
    91 A995 8D F0 05			sta	temps
    92 A998 20 4B A9			jsr	clnln
    93 A99B F0 10			beq	??cl0
    94 A99D 20 CF B5			jsr	mainmsc.editor.nextup
    95 A9A0 F0 0B			beq	??cl0
    96 A9A2 EE F0 05			inc	temps
    97 A9A5 20 CF B5			jsr	mainmsc.editor.nextup
    98 A9A8 F0 03			beq	??cl0
    99 A9AA EE F0 05			inc	temps
   100 A9AD 20 C4 A9		??cl0	jsr	newpage
   101 A9B0 AD F0 05		??cl1	lda	temps
   102 A9B3 F0 D2			beq	rstwd.rw2	;Return
   103 A9B5 20 2A AB			jsr	cmd.scrldwn
   104 A9B8 CE F0 05			dec	temps
   105 A9BB 4C B0 A9			jmp	??cl1
   106 					.endp
   107
   108 A9BE			topln	.proc			; TopLn()
   109 A9BE 20 4B A9			jsr	clnln
   110 A9C1 20 B9 B2			jsr	mainio.chkcur.ldtop
   111 A9C4				m_assert_next newpage	; falls into newpage
Macro: M_ASSERT_NEXT [Source: ACTION.DEF.asm]
Source: EDIT.DSP.asm
   112 					.endp
   113
   114 A9C4			newpage	.proc			; NewPage()
   115 A9C4 A9 00			lda	#0
   116 A9C6 85 8E			sta	lnum
   117 A9C8 85 8D		npage1	sta	choff
   118 A9CA 20 0C B3			jsr	mainio.rstcsr	; for command line
   119 A9CD A5 52			lda	lmargin
   120 A9CF 85 55			sta	colcrs
   121 				; JMP Refresh ; do all the work
   122 A9D1				m_assert_next refresh	; falls into refresh
Macro: M_ASSERT_NEXT [Source: ACTION.DEF.asm]
Source: EDIT.DSP.asm
   123 					.endp
   124
   125 A9D1			refresh	.proc			; Refresh()
   126 A9D1 18				clc	
   127 A9D2 A5 99			lda	ytop
   128 A9D4 65 8E			adc	lnum
   129 A9D6 85 54			sta	rowcrs
   130 A9D8 20 9B B2			jsr	mainio.savecol
   131 A9DB 20 61 A9			jsr	savewd
   132 A9DE E6 54			inc	rowcrs
   133 A9E0 20 D3 B5			jsr	mainmsc.editor.nextdwn
   134 A9E3 85 A9			sta	arg9
   135 A9E5 18				clc	
   136 A9E6 A5 98			lda	nlines
   137 A9E8 E5 8E			sbc	lnum
   138 A9EA 85 AA			sta	arg10
   139 A9EC F0 22			beq	??cl4
   140
   141 A9EE A0 00		??cl1	ldy	#screen_definition.normal
   142 A9F0 A5 9A			lda	indent
   143 A9F2 85 A3			sta	arg3
   144 A9F4 A6 A9			ldx	arg9
   145 A9F6 F0 21			beq	??cl5
   146 A9F8 20 E8 B5			jsr	mainmsc.editor.curstr
   147
   148 A9FB 20 05 B2		??cl2	jsr	mainio.putstr
   149 A9FE A5 A9			lda	arg9
   150 AA00 D0 03			bne	??cl3
   151 AA02 A8				tay	
   152 AA03 91 A0			sta	(arg0),y
   153 AA05 E6 54		??cl3	inc	rowcrs
   154 AA07 20 D3 B5			jsr	mainmsc.editor.nextdwn
   155 AA0A 85 A9			sta	arg9
   156 AA0C C6 AA			dec	arg10
   157 AA0E D0 DE			bne	??cl1
   158
   159 AA10 20 D1 B0		??cl4	jsr	mainio.rstcur
   160 AA13 20 A4 B2			jsr	mainio.rstcol
   161 AA16 4C 8A A5			jmp	chr.rfrshbuf
   162
   163 AA19 A9 DF		??cl5	lda	#<emjmps.zero
   164 AA1B A2 A2			ldx	#>emjmps.zero
   165 AA1D D0 DC			bne	??cl2		; Unconditional branch
   166 					.endp
   167
   168 					.endp			; End of dsp
   290 AA1F				icl "EDIT.CMD.asm"
Source: EDIT.CMD.asm
     1 				;
     2 				;	EDIT.CMD
     3 				;
     4 				; Copyright 1983 by Clinton W Parker.
     5 				; All Rights Reserved.
     6 				; Original last modified March 10, 1983.
     7 				;
     8 				; This file is part of Action!.
     9 				;
    10 				; Action! is free software: you can redistribute it and/or modify
    11 				; it under the terms of the GNU General Public License as published by
    12 				; the Free Software Foundation, either version 3 of the License, or
    13 				; (at your option) any later version.
    14 				;
    15 				; Action! is distributed in the hope that it will be useful,
    16 				; but WITHOUT ANY WARRANTY; without even the implied warranty of
    17 				; MERCHANTABILITY or FITNESS FOR A PARTICULAR PURPOSE.  See the
    18 				; GNU General Public License for more details.
    19 				;
    20 				; You should have received a copy of the GNU General Public License
    21 				; along with Action!.  If not, see <http://www.gnu.org/licenses/>.
    22 				;
    23 				; @com.wudsn.ide.asm.mainsourcefile=../ACTION.asm
    24
    25 AA1F				.proc cmd
    26
    27 AA1F			front	.proc			; Front()
    28 AA1F 38				sec	
    29 AA20 A9 00			lda	#0
    30 AA22 E5 9A			sbc	indent
    31 AA24 85 8D			sta	choff
    32 AA26 20 DD B2			jsr	mainio.dspbuf
    33 AA29 A5 52			lda	lmargin
    34 AA2B 4C AA B2			jmp	mainio.rstcol+6
    35 					.endp
    36
    37 AA2E			back	.proc			; Back()
    38 AA2E A0 00			ldy	#0
    39 AA30 B1 9B			lda	(buf),y
    40 AA32 48			back0	pha	
    41 AA33 18				clc	
    42 AA34 65 52			adc	lmargin
    43 AA36 38				sec	
    44 AA37 E5 53			sbc	rmargin
    45 AA39 B0 02			bcs	??back1
    46 AA3B A9 01			lda	#1
    47 AA3D E5 9A		??back1	sbc	indent
    48 AA3F 85 8D			sta	choff
    49 AA41 20 DD B2			jsr	mainio.dspbuf
    50 AA44 38				sec	
    51 AA45 68				pla	
    52 AA46 E5 9A			sbc	indent
    53 AA48 38				sec	
    54 AA49 E5 8D			sbc	choff
    55 AA4B 18				clc	
    56 AA4C 65 52			adc	lmargin
    57 AA4E 4C AA B2			jmp	mainio.rstcol+6
    58 					.endp
    59
    60 AA51			pgup	.proc			; PgUp()
    61 AA51 38				sec	
    62 AA52 A5 8E			lda	lnum
    63 AA54 E9 02			sbc	#2
    64 AA56 A0 01			ldy	#1
    65 AA58 D0 07			bne	page		; Uncoditional branch
    66 					.endp
    67
    68 AA5A			pgdwn	.proc			; PgDwn()
    69 AA5A A0 05			ldy	#5
    70 AA5C 38				sec	
    71 AA5D A9 02			lda	#2
    72 AA5F E5 8E			sbc	lnum
    73 AA61				m_assert_next page	; falls into page
Macro: M_ASSERT_NEXT [Source: ACTION.DEF.asm]
Source: EDIT.CMD.asm
    74 					.endp
    75
    76 AA61			page	.proc			; Private, IN: <A>=number of lines, <Y>=???
    77 AA61 18				clc	
    78 AA62 65 98			adc	nlines
    79 AA64 85 AE			sta	arg14
    80 AA66 C6 AE			dec	arg14
    81 AA68 F0 0E			beq	return
    82 AA6A 84 AD			sty	arg13
    83 AA6C 20 4B A9			jsr	dsp.clnln
    84 AA6F A4 AD		loop	ldy	arg13
    85 AA71 20 D5 B5			jsr	mainmsc.editor.next
    86 AA74 C6 AE			dec	arg14
    87 AA76 D0 F7			bne	loop
    88 AA78 4C 93 A9		return	jmp	dsp.ctrln
    89 					.endp
    90
    91 AA7B			paste	.proc			; Paste()
    92 AA7B 20 3D A5			jsr	chr.deltop
    93 AA7E F0 36			beq	??pret
    94 AA80 86 8F			stx	dirty
    95 AA82 20 4B A9			jsr	dsp.clnln
    96 AA85 20 CF B5			jsr	mainmsc.editor.nextup
    97 AA88 85 95			sta	cur+1		; tricky, fake out top
    98 AA8A 20 64 A9			jsr	dsp.savewd.savwd1
    99
   100 AA8D 20 3D A5			jsr	chr.deltop
   101 AA90 20 EC B5		??p1	jsr	mainmsc.editor.strptr
   102 AA93 20 CE B2			jsr	mainio.ldbuf.ldbuf1
   103 AA96 20 C0 A1			jsr	mem.instb
   104 AA99 AD A6 04			lda	vars.allocerr
   105 AA9C D0 05			bne	??p2		; check for out of memory
   106 AA9E 20 58 A5			jsr	chr.delnext
   107 AAA1 D0 ED			bne	??p1
   108
   109 AAA3 20 D1 B0		??p2	jsr	mainio.rstcur
   110 AAA6 AC 9F 04			ldy	vars.curwdw
   111 AAA9 B9 89 04			lda	vars.w1+wcur+1,y
   112 AAAC F0 03			beq	??p3
   113 AAAE 20 D3 B5			jsr	mainmsc.editor.nextdwn
   114 AAB1 A9 00		??p3	lda	#0
   115 AAB3 4C C8 A9			jmp	dsp.newpage.npage1
   116
   117 AAB6 60			??pret	rts	
   118 					.endp
   119
   120 AAB7			indntl	.proc			; old IndentL()
   121 AAB7 A5 9A			lda	indent
   122 AAB9 F0 4E			beq	scrlinit.putrtn	; return
   123 AABB C6 9A			dec	indent
   124 AABD 4C 93 A9			jmp	dsp.ctrln
   125 					.endp
   126
   127 AAC0			indntr	.proc			; old IndentR()
   128 AAC0 A5 9A			lda	indent
   129 AAC2 30 45			bmi	scrlinit.putrtn	; return
   130 AAC4 E6 9A			inc	indent
   131 AAC6 4C 93 A9			jmp	dsp.ctrln
   132 					.endp
   133
   134 AAC9			insrtt	.proc			; was InsertT
   135 				; InsrtT() insert/replace toggle
   136 AAC9 A9 E3			lda	#<??rmsg
   137 AACB A2 AA			ldx	#>??rmsg
   138 AACD E6 9D			inc	insert
   139 AACF F0 08			beq	??it1
   140 AAD1 A9 FF			lda	#$ff
   141 AAD3 85 9D			sta	insert
   142 AAD5 A9 DC			lda	#<??imsg
   143 AAD7 A2 AA			ldx	#>??imsg
   144 AAD9 4C 38 A9		??it1	jmp	dsp.cmdmsg
   145
   146 AADC			??imsg	m_string 'INSERT'
Macro: M_STRING [Source: ACTION.DEF.asm]
     1 AADC 06				.byte [.len string]
     3 AADD 49 4E 53 45 52 54		.byte 'INSERT'
Source: EDIT.CMD.asm
   147 AAE3			??rmsg	m_string 'REPLACE'
Macro: M_STRING [Source: ACTION.DEF.asm]
     1 AAE3 07				.byte [.len string]
     3 AAE4 52 45 50 4C 41 43 + 	.byte 'REPLACE'
Source: EDIT.CMD.asm
   148 					.endp
   149
   150 AAEB			scrlinit	.proc	
   151 AAEB 84 AD			sty	arg13
   152 AAED 20 4B A9			jsr	dsp.clnln
   153 AAF0 F0 15			beq	??siret
   154
   155 AAF2 A4 AD			ldy	arg13
   156 AAF4 20 D5 B5			jsr	mainmsc.editor.next
   157 AAF7 F0 0E			beq	??siret		; EOF
   158
   159 AAF9 A5 55			lda	colcrs
   160 AAFB 85 96			sta	x
   161 				; LDA choff
   162 				; BEQ ??SI1
   163 AAFD A9 00			lda	#0
   164 AAFF 85 8D			sta	choff
   165 AB01 20 DD B2			jsr	mainio.dspbuf
   166 				;??si1
   167 AB04 4C C2 B2			jmp	mainio.ldbuf
   168
   169 AB07 68			??siret	pla	
   170 AB08 68				pla	
   171 AB09 60			putrtn	rts	
   172 					.endp
   173
   174 AB0A			scrlup	.proc			; ScrlUp()
   175 AB0A A0 01			ldy	#1
   176 AB0C 20 EB AA			jsr	scrlinit
   177 AB0F C6 8E			dec	lnum
   178 AB11 30 03			bmi	??su2
   179 AB13 4C 4F B3			jmp	screen.scrup
   180
   181 AB16 E6 8E		??su2	inc	lnum
   182 AB18 A5 99			lda	ytop
   183 AB1A 85 97			sta	y
   184 AB1C 20 50 AB			jsr	botln
   185 AB1F A5 98			lda	nlines
   186 AB21 20 AA AB			jsr	move.movedwn
   187 AB24 20 A4 B2			jsr	mainio.rstcol
   188 AB27 4C 8A A5			jmp	chr.rfrshbuf
   189 					.endp
   190
   191 AB2A			scrldwn	.proc			; ScrlDwn()
   192 AB2A A0 05			ldy	#5
   193 AB2C 20 EB AA			jsr	scrlinit
   194 AB2F A6 8E			ldx	lnum
   195 AB31 E8				inx	
   196 AB32 E4 98			cpx	nlines
   197 AB34 F0 05			beq	??sd2
   198 AB36 86 8E			stx	lnum
   199 AB38 4C 53 B3			jmp	screen.scrdwn
   200
   201 AB3B 20 50 AB		??sd2	jsr	botln
   202 AB3E 86 97			stx	y
   203
   204 AB40 A5 98			lda	nlines
   205 AB42 A6 99			ldx	ytop
   206 AB44 20 B2 AB			jsr	move.moveup
   207
   208 AB47 20 A4 B2			jsr	mainio.rstcol
   209 AB4A 20 DD B2			jsr	mainio.dspbuf
   210 AB4D 4C A4 B2			jmp	mainio.rstcol
   211 					.endp
   212
   213 AB50			botln	.proc			; BotLn()
   214 AB50 18				clc	
   215 AB51 A5 99			lda	ytop
   216 AB53 65 98			adc	nlines
   217 AB55 AA				tax	
   218 AB56 CA				dex	
   219 AB57 60			escape	rts	
   220 					.endp
   221
   222 AB58			chkcol	.proc			; ChkCol()
   223 AB58 20 9C AB			jsr	setsp
   224 AB5B A0 00			ldy	#0
   225 AB5D B1 9B			lda	(buf),y
   226 AB5F C5 8C			cmp	sp
   227 AB61 B0 07			bcs	chkc1
   228 AB63 20 2E AA			jsr	back
   229 AB66 20 9C AB			jsr	setsp
   230 AB69 18				clc	
   231 AB6A 60			chkc1	rts	
   232 					.endp
   233
   234 AB6B			scrllft	.proc			; ScrlLft()
   235 AB6B 20 58 AB			jsr	chkcol
   236 AB6E A5 52			lda	lmargin
   237 AB70 C5 55			cmp	colcrs
   238 AB72 90 0F			bcc	??sl1
   239
   240 AB74 18				clc	
   241 AB75 A5 8D			lda	choff
   242 AB77 65 9A			adc	indent
   243 AB79 F0 EF			beq	chkcol.chkc1
   244
   245 AB7B C6 8D			dec	choff
   246 AB7D 20 DD B2			jsr	mainio.dspbuf
   247 AB80 20 5F B3			jsr	screen.scrrt
   248 AB83 4C 5B B3		??sl1	jmp	screen.scrlft
   249 					.endp
   250
   251 AB86			scrlrt	.proc			; ScrlRt()
   252 AB86 20 58 AB			jsr	chkcol
   253 AB89 90 DF			bcc	chkcol.chkc1
   254
   255 AB8B A5 55			lda	colcrs
   256 AB8D C5 53			cmp	rmargin
   257 AB8F 90 08			bcc	??sr2
   258
   259 AB91 E6 8D			inc	choff
   260 AB93 20 DD B2			jsr	mainio.dspbuf
   261 AB96 20 5B B3			jsr	screen.scrlft
   262 AB99 4C 5F B3		??sr2	jmp	screen.scrrt
   263 					.endp
   264
   265 AB9C			setsp	.proc			; SetSp()
   266 AB9C 38				sec	
   267 AB9D A5 9A			lda	indent
   268 AB9F 65 8D			adc	choff
   269 ABA1 18				clc	
   270 ABA2 65 55			adc	colcrs
   271 ABA4 38				sec	
   272 ABA5 E5 52			sbc	lmargin
   273 ABA7 85 8C			sta	sp
   274 ABA9 60				rts	
   275 					.endp
   276
   277 ABAA				.proc move		;Private
   278
   279 ABAA			movedwn	.proc			; MoveDwn(cnt, row)
   280 ABAA A0 D8			ldy	#<[-screen_definition.line_width]
   281 ABAC 84 A5			sty	arg5
   282 ABAE A0 FF			ldy	#>[-screen_definition.line_width]
   283 ABB0 D0 06			bne	move_lines	; Uncoditional branch
   284 					.endp
   285
   286 ABB2			moveup	.proc			; MoveUp(cnt, row)
   287 ABB2 A0 28			ldy	#<[+screen_definition.line_width]
   288 ABB4 84 A5			sty	arg5
   289 ABB6 A0 00			ldy	#>[+screen_definition.line_width]
   290 ABB8				m_assert_next move_lines ; falls into move_lines
Macro: M_ASSERT_NEXT [Source: ACTION.DEF.asm]
Source: EDIT.CMD.asm
   291 					.endp
   292
   293 ABB8				.proc	move_lines	; Private, IN: <A>=cnt <X>=row, <arg5>=<line_width, <Y>=>line_width 
   294 ABB8 84 A6			sty	arg6
   295 ABBA 85 A4			sta	arg4
   296 ABBC 86 54			stx	rowcrs
   297 ABBE 20 0C B3			jsr	mainio.rstcsr
   298 ABC1 20 ED B2			jsr	mainio.dsploc	; get display address
   299
   300 ABC4 A6 A4			ldx	arg4
   301 ABC6 CA				dex	
   302 ABC7 A5 A0		??mu1	lda	arg0
   303 ABC9 85 A2			sta	arg2
   304 ABCB 18				clc	
   305 ABCC 65 A5			adc	arg5
   306 ABCE 85 A0			sta	arg0
   307 ABD0 A5 A1			lda	arg1
   308 ABD2 85 A3			sta	arg3
   309 ABD4 65 A6			adc	arg6
   310 ABD6 85 A1			sta	arg1
   311
   312 ABD8 A0 27			ldy	#screen_definition.line_width-1
   313 ABDA B1 A0		??mu2	lda	(arg0),y
   314 ABDC 91 A2			sta	(arg2),y
   315 ABDE 88				dey	
   316 ABDF 10 F9			bpl	??mu2
   317
   318 ABE1 CA				dex	
   319 ABE2 D0 E3			bne	??mu1
   320 ABE4 60				rts	
   321 					.endp
   322
   323 					.endp
   324
   325 					.endp
   291 ABE5				icl "EDIT.TAG.asm"
Source: EDIT.TAG.asm
     1 				;
     2 				;	EDIT.TAB
     3 				;
     4 				; Copyright 1983 by Clinton W Parker.
     5 				; All Rights Reserved.
     6 				; Original last modified March 16, 1983.
     7 				;
     8 				; This file is part of Action!.
     9 				;
    10 				; Action! is free software: you can redistribute it and/or modify
    11 				; it under the terms of the GNU General Public License as published by
    12 				; the Free Software Foundation, either version 3 of the License, or
    13 				; (at your option) any later version.
    14 				;
    15 				; Action! is distributed in the hope that it will be useful,
    16 				; but WITHOUT ANY WARRANTY; without even the implied warranty of
    17 				; MERCHANTABILITY or FITNESS FOR A PARTICULAR PURPOSE.  See the
    18 				; GNU General Public License for more details.
    19 				;
    20 				; You should have received a copy of the GNU General Public License
    21 				; along with Action!.  If not, see <http://www.gnu.org/licenses/>.
    22 				;
    23 				; @com.wudsn.ide.asm.mainsourcefile=../ACTION.asm
    24
    25 ABE5				.proc tag
    26
    27 ABE5			settag	.proc			; SetTag()
    28 ABE5 20 47 AC			jsr	tagid
    29
    30 ABE8 AD 90 05			lda	tempbuf
    31 ABEB F0 47			beq	notag
    32
    33 ABED 20 4B A9			jsr	dsp.clnln
    34 ABF0 AD 91 05			lda	tempbuf+1
    35 ABF3 20 8E AC			jsr	gettag
    36 ABF6 D0 1C			bne	??st1		; tag already exists
    37
    38 				; get a new tag
    39 ABF8 A9 08			lda	#8
    40 ABFA 20 00 A0			jsr	allocate
    41 ABFD A0 01			ldy	#1
    42 ABFF AD AF 04			lda	vars.taglist+1
    43 AC02 91 84			sta	(afcur),y
    44 AC04 88				dey	
    45 AC05 AD AE 04			lda	vars.taglist
    46 AC08 91 84			sta	(afcur),y
    47 AC0A A5 84			lda	afcur
    48 AC0C 8D AE 04			sta	vars.taglist
    49 AC0F A6 85			ldx	afcur+1
    50 AC11 8E AF 04			stx	vars.taglist+1
    51
    52 AC14 A0 04		??st1	ldy	#4
    53 AC16 AD 91 05			lda	tempbuf+1
    54 AC19 91 84			sta	(afcur),y
    55 AC1B C8				iny	
    56 AC1C A5 94			lda	cur
    57 AC1E 91 84			sta	(afcur),y
    58 AC20 C8				iny	
    59 AC21 A5 95			lda	cur+1
    60 AC23 91 84			sta	(afcur),y
    61 AC25 C8				iny	
    62 AC26 20 9C AB			jsr	cmd.setsp
    63 AC29 91 84			sta	(afcur),y
    64 				; flag line as taged
    65 AC2B A0 03			ldy	#3
    66 AC2D B1 94			lda	(cur),y
    67 AC2F 09 80			ora	#screen_definition.inverse
    68 AC31 91 94			sta	(cur),y
    69 AC33 60				rts
    70 					.endp	
    71
    72 AC34			notag	.proc			; NoTag() - private
    73 AC34 A9 3B			lda	#<??ntmsg
    74 AC36 A2 AC			ldx	#>??ntmsg
    75 AC38 4C 38 A9			jmp	dsp.cmdmsg
    76
    77 AC3B			??ntmsg	m_string 'tag not set'
Macro: M_STRING [Source: ACTION.DEF.asm]
     1 AC3B 0B				.byte [.len string]
     3 AC3C 74 61 67 20 6E 6F + 	.byte 'tag not set'
Source: EDIT.TAG.asm
    78 					.endp
    79
    80 AC47			tagid	.proc			; TagId() - private
    81 AC47 A9 4E			lda	#<??stmsg
    82 AC49 A2 AC			ldx	#>??stmsg
    83 AC4B 4C 03 A9			jmp	window.gettemp
    84
    85 AC4E			??stmsg	m_string 'tag id: '
Macro: M_STRING [Source: ACTION.DEF.asm]
     1 AC4E 08				.byte [.len string]
     3 AC4F 74 61 67 20 69 64 + 	.byte 'tag id: '
Source: EDIT.TAG.asm
    86 					.endp
    87
    88
    89 AC57			loctag	.proc			;LocTag()
    90 AC57 20 47 AC			jsr	tagid
    91 AC5A AD 90 05			lda	tempbuf
    92 AC5D F0 39			beq	gettag.??ltret
    93 AC5F 20 4B A9			jsr	dsp.clnln
    94 AC62 AD 91 05			lda	tempbuf+1
    95 AC65 20 8E AC			jsr	gettag
    96 AC68 F0 CA			beq	notag
    97 AC6A A0 06			ldy	#6
    98 AC6C B1 84			lda	(afcur),y
    99 AC6E AA				tax	
   100 AC6F 88				dey	
   101 AC70 B1 84			lda	(afcur),y
   102 AC72 20 D7 AC			jsr	findln
   103 AC75 F0 BD			beq	notag
   104 AC77 A0 03			ldy	#3
   105 AC79 B1 A2			lda	(arg2),y
   106 AC7B 10 B7			bpl	notag
   107 AC7D A0 07			ldy	#7
   108 AC7F B1 84			lda	(afcur),y
   109 AC81 85 8C			sta	sp
   110 AC83 A5 A2			lda	arg2
   111 AC85 85 94			sta	cur
   112 AC87 A6 A3			ldx	arg3
   113 AC89 86 95			stx	cur+1
   114 AC8B 4C 45 B9			jmp	find.found
   115 					.endp
   116
   117 AC8E			gettag	.proc				 ; GetTag(tag) - private
   118 AC8E 85 A0			sta	arg0
   119 AC90 AD AE 04			lda	vars.taglist
   120 AC93 AE AF 04			ldx	vars.taglist+1
   121 AC96 D0 11			bne	??gt2
   122 AC98 60			??ltret	rts	
   123
   124 AC99 A0 04		??gt1	ldy	#4
   125 AC9B B1 84			lda	(afcur),y
   126 AC9D C5 A0			cmp	arg0
   127 AC9F F0 0F			beq	??gt3
   128 ACA1 A0 01			ldy	#1
   129 ACA3 B1 84			lda	(afcur),y
   130 ACA5 AA				tax	
   131 ACA6 88				dey	
   132 ACA7 B1 84			lda	(afcur),y
   133 ACA9 85 84		??gt2	sta	afcur
   134 ACAB 86 85			stx	afcur+1
   135 ACAD 8A				txa	
   136 ACAE D0 E9			bne	??gt1
   137 ACB0 A6 85		??gt3	ldx	afcur+1
   138 ACB2 60				rts	
   139 					.endp
   140
   141 ACB3			freetags	.proc		; FreeTags()
   142 ACB3 AD AE 04			lda	vars.taglist
   143 ACB6 AE AF 04			ldx	vars.taglist+1
   144 ACB9 F0 1B			beq	??ft2
   145 ACBB 85 88		??ft1	sta	afbest
   146 ACBD 86 89			stx	afbest+1
   147 ACBF A0 00			ldy	#0
   148 ACC1 B1 88			lda	(afbest),y
   149 ACC3 85 A0			sta	arg0
   150 ACC5 C8				iny	
   151 ACC6 B1 88			lda	(afbest),y
   152 ACC8 85 A1			sta	arg1
   153 ACCA 20 DA A0			jsr	free.free1
   154 ACCD A5 A0			lda	arg0
   155 ACCF A6 A1			ldx	arg1
   156 ACD1 D0 E8			bne	??ft1
   157 ACD3 8E AF 04			stx	vars.taglist+1
   158 ACD6 60			??ft2	rts	
   159 					.endp
   160
   161 ACD7			findln	.proc			; FindLn(line) - private
   162 ACD7 85 A0			sta	arg0
   163 ACD9 86 A1			stx	arg1
   164 ACDB A5 90			lda	top
   165 ACDD A6 91			ldx	top+1
   166 ACDF D0 09			bne	??fl2
   167 ACE1 60				rts	
   168
   169 ACE2 A0 05		??fl1	ldy	#5
   170 ACE4 B1 A2			lda	(arg2),y
   171 ACE6 AA				tax	
   172 ACE7 88				dey	
   173 ACE8 B1 A2			lda	(arg2),y
   174 ACEA 85 A2		??fl2	sta	arg2
   175 ACEC 86 A3			stx	arg3
   176 ACEE C5 A0			cmp	arg0
   177 ACF0 D0 04			bne	??fl3
   178 ACF2 E4 A1			cpx	arg1
   179 ACF4 F0 03			beq	??fl4
   180 ACF6 8A			??fl3	txa	
   181 ACF7 D0 E9			bne	??fl1
   182 ACF9 A6 A3		??fl4	ldx	arg3
   183 ACFB 60				rts
   184 					.endp
   185
   186 					.endp			; End of tag
   131 ACFC				icl	"ampl/AMPL.MON.asm"
Source: AMPL.MON.asm
     1 				;
     2 				;	AMPL.INI
     3 				;
     4 				; Copyright 1982 by Clinton W Parker.
     5 				; All Rights Reserved.
     6 				; Original last modified July 29, 1983.
     7 				;
     8 				; This file is part of Action!.
     9 				;
    10 				; Action! is free software: you can redistribute it and/or modify
    11 				; it under the terms of the GNU General Public License as published by
    12 				; the Free Software Foundation, either version 3 of the License, or
    13 				; (at your option) any later version.
    14 				;
    15 				; Action! is distributed in the hope that it will be useful,
    16 				; but WITHOUT ANY WARRANTY; without even the implied warranty of
    17 				; MERCHANTABILITY or FITNESS FOR A PARTICULAR PURPOSE.  See the
    18 				; GNU General Public License for more details.
    19 				;
    20 				; You should have received a copy of the GNU General Public License
    21 				; along with Action!.  If not, see <http://www.gnu.org/licenses/>.
    22 				;
    23 				; @com.wudsn.ide.asm.mainsourcefile=../ACTION.asm
    24
    25
    26 				; Monitor for ACTION!
    27
    28
    29
    30 ACFC			monitor	.proc
    31
    32 ACFC 20 5A A8			jsr	window.savworld
    33 ACFF AD A7 04			lda	vars.delbuf	; delete buffer bottom
    34 AD02 AE A8 04			ldx	vars.delbuf+1
    35 AD05 20 4E A5			jsr	chr.delfree	; get rid of delete buf
    36 AD08 A5 91			lda	top+1
    37 AD0A 8D 8F 04			sta	vars.top1
    38 AD0D 20 15 B3		mon1	jsr	screen.scrinit
    39 AD10 A2 01			ldx	#1
    40 AD12 86 54			stx	rowcrs
    41 AD14 8E 96 04			stx	vars.mpc
    42 AD17 CA				dex	
    43 AD18 8E 9C 04			stx	vars.cmdln
    44 AD1B 86 B7			stx	device
    45 AD1D 20 63 AF			jsr	splsetup
    46
    47 				; LIST I
    48
    49 AD20				.proc mloop		; main loop
    50 AD20 20 1E A8			jsr	editio.initkeys
    51
    52 				; LIST *
    53
    54 AD23 A5 57			lda	dindex		; display mode
    55 AD25 F0 03			beq	??mon2
    56 AD27 20 15 B3			jsr	screen.scrinit	; get Graphics(0)
    57 AD2A 20 E0 04		??mon2	jsr	alarm
    58 AD2D 20 0C B3			jsr	mainio.rstcsr
    59 AD30 A9 61			lda	#<mprompt
    60 AD32 A2 AF			ldx	#>mprompt
    61 AD34 20 03 A9			jsr	window.gettemp
    62 AD37 AC 90 05			ldy	tempbuf
    63 AD3A F0 E4			beq	mloop
    64
    65 AD3C A9 00			lda	#0
    66 AD3E 85 91			sta	top+1
    67 AD40 85 98			sta	chan
    68 AD42 A9 90			lda	#<tempbuf
    69 AD44 A2 05			ldx	#>tempbuf
    70 AD46 A4 8C			ldy	sp
    71 AD48 C8				iny			; make sure non-zero
    72 AD49 20 57 B5			jsr	compiler.lexicon.lexexpand.lexp1
    73 AD4C 20 63 B3			jsr	getnext
    74
    75 AD4F AD 91 05			lda	tempbuf+1
    76 AD52 09 20			ora	#$20
    77 AD54 A2 3D			ldx	#<mcmd
    78 AD56 A0 AF			ldy	#>mcmd
    79 AD58 20 F4 B6			jsr	mainmsc.lookup
    80 AD5B 4C 20 AD			jmp	mloop
    81 					.endp			; end of mloop
    82
    83 AD5E			mquit	.proc
    84 AD5E A0 00			ldy	#0
    85 AD60 8C 96 04			sty	vars.mpc
    86 AD63 8C 00 05			sty	subbuf
    87 AD66 8C 28 05			sty	findbuf
    88 AD69 84 C3			sty	dirtyf
    89 AD6B				m_assert_next rstwnd	; falls into rstwnd
Macro: M_ASSERT_NEXT [Source: ACTION.DEF.asm]
Source: AMPL.MON.asm
    90 					.endp
    91
    92 AD6B			rstwnd	.proc	
    93 AD6B A9 17			lda	#23
    94 AD6D 8D 9C 04			sta	vars.cmdln
    95 AD70 AD A5 04			lda	vars.numwd
    96 AD73 F0 0D			beq	??rw1
    97 AD75 AD CE 04			lda	wsize
    98 AD78 8D 9C 04			sta	vars.cmdln
    99 AD7B A9 31			lda	#vars.w2-vars.w1
   100 AD7D 20 8B AD			jsr	paintw
   101 AD80 A9 00			lda	#0
   102 AD82 20 8B AD		??rw1	jsr	paintw
   103 AD85 20 A8 A6			jsr	fcmsg1
   104 AD88 4C 5F A3			jmp	editmain.floop
   105 					.endp
   106
   107
   108 AD8B			paintw	.proc			; PaintW(window)
   109 AD8B 8D 9F 04			sta	vars.curwdw
   110 AD8E 20 76 A9			jsr	dsp.rstwd
   111 AD91 4C 45 B9			jmp	find.found
   112 					.endp
   113
   114 AD94			mdump	.proc	
   115 AD94 20 B3 AD			jsr	mprint
   116 AD97 E6 AB		??md1	inc	arg11
   117 AD99 D0 02			bne	??md2
   118 AD9B E6 AC			inc	arg12
   119 AD9D A5 AB		??md2	lda	arg11
   120 AD9F A6 AC			ldx	arg12
   121 ADA1 20 B6 AD			jsr	mprint.mp1
   122 ADA4 20 33 A8			jsr	editio.gotkey
   123 ADA7 F0 EE			beq	??md1
   124 ADA9 A2 FF			ldx	#$ff
   125 ADAB 8E FC 02			stx	ch
   126 ADAE C9 DE			cmp	#$de	; TODO Key code
   127 ADB0 D0 E5			bne	??md1
   128 ADB2 60				rts	
   129 					.endp
   130
   131 ADB3			mprint	.proc
   132 ADB3 20 00 AE			jsr	mpsave
   133 ADB6 20 48 B1		mp1	jsr	mainio.printc
   134 ADB9 A0 2C			ldy	#character.comma
   135 ADBB 20 00 B2			jsr	mainio.putchar
   136 ADBE A5 AB			lda	arg11
   137 ADC0 A6 AC			ldx	arg12
   138 ADC2 20 13 AF			jsr	printh
   139 ADC5 20 FA B1			jsr	mainio.putsp
   140 ADC8 A0 3D			ldy	#'='
   141 ADCA 20 00 B2			jsr	mainio.putchar
   142 ADCD 20 FA B1			jsr	mainio.putsp
   143 ADD0 20 F7 AD			jsr	mpload
   144 ADD3 A8				tay	
   145 ADD4 20 00 B2			jsr	mainio.putchar
   146 ADD7 20 FA B1			jsr	mainio.putsp
   147 ADDA 20 F7 AD			jsr	mpload
   148 ADDD 20 13 AF			jsr	printh
   149 ADE0 20 FA B1			jsr	mainio.putsp
   150 ADE3 20 F7 AD			jsr	mpload
   151 ADE6 A2 00			ldx	#0
   152 ADE8 20 48 B1			jsr	mainio.printc
   153 ADEB 20 FA B1			jsr	mainio.putsp
   154 ADEE 20 F7 AD			jsr	mpload
   155 ADF1 20 48 B1			jsr	mainio.printc
   156 ADF4 4C FE B1			jmp	mainio.puteol
   157 					.endp
   158
   159 ADF7			mpload	.proc
   160 ADF7 A0 01			ldy	#1
   161 ADF9 B1 AB			lda	(arg11),y
   162 ADFB AA				tax	
   163 ADFC 88				dey	
   164 ADFD B1 AB			lda	(arg11),y
   165 ADFF 60				rts	
   166 					.endp
   167
   168 AE00			mpsave	.proc
   169 AE00 20 F7 B5			jsr	mainmsc.mnum
   170 AE03 85 AB			sta	arg11
   171 AE05 86 AC			stx	arg12
   172 AE07 60				rts	
   173 					.endp
   174
   175 AE08			boot	.proc	
   176 AE08 A9 14			lda	#<??bmsg
   177 AE0A A2 AE			ldx	#>??bmsg
   178 AE0C 20 26 A9			jsr	window.yesno
   179 AE0F D0 1F			bne	mrun.mwrt1	; Return
   180 AE11 4C 1D A3			jmp	cold
   181
   182 AE14			??bmsg	m_string 'Boot? '
Macro: M_STRING [Source: ACTION.DEF.asm]
     1 AE14 06				.byte [.len string]
     3 AE15 42 6F 6F 74 3F 20		.byte 'Boot? '
Source: AMPL.MON.asm
   183 					.endp
   184
   185 AE1B			mrun	.proc
   186 AE1B A5 D3			lda	nxttoken
   187 AE1D C9 7F			cmp	#compiler.tokens.eofid
   188 AE1F F0 07			beq	??mr1
   189
   190 AE21 C9 1E			cmp	#compiler.tokens.quote	; compile and go?
   191 AE23 D0 0C			bne	??mr2		; no
   192 AE25 20 F8 AE			jsr	comp
   193
   194 AE28 AD E2 02		??mr1	lda	initad
   195 AE2B AE E3 02			ldx	initad+1
   196 AE2E D0 04			bne	??mr3
   197 AE30 60			mwrt1	rts
   198
   199 AE31 20 F7 B5		??mr2	jsr	mainmsc.mnum
   200 AE34 20 05 B8		??mr3	jsr	mainbnk.run_
   201 AE37 A9 00			lda	#0
   202 AE39 85 B7			sta	device
   203 AE3B 60				rts	
   204 					.endp
   205
   206 AE3C			mwrite	.proc			; write object file
   207 AE3C A5 D3			lda	nxttoken
   208 AE3E C9 1E			cmp	#compiler.tokens.quote
   209 AE40 D0 EE			bne	mrun.mwrt1	; no output file!
   210 AE42 AD E3 02			lda	initad+1
   211 AE45 F0 E9			beq	mrun.mwrt1	; no program!!
   212 AE47 A9 01			lda	#1
   213 AE49 85 98			sta	chan
   214 AE4B A9 08			lda	#8		; output
   215 AE4D 20 54 B1			jsr	mainio.openchan
   216
   217 				; write header
   218 AE50 A9 06			lda	#6
   219 AE52 85 A9			sta	arg9
   220 AE54 A9 FF			lda	#$ff
   221 AE56 85 AA			sta	arg10		; $FF
   222 AE58 85 AB			sta	arg11		; $FF
   223 AE5A 18				clc	
   224 AE5B AD 91 04			lda	vars.codebase	; starting address
   225 AE5E 65 B5			adc	codeoff
   226 AE60 85 AC			sta	arg12
   227 AE62 AD 92 04			lda	vars.codebase+1
   228 AE65 65 B6			adc	codeoff+1
   229 AE67 85 AD			sta	arg13
   230 AE69 AA				tax	
   231
   232 AE6A 18				clc			; ending address
   233 AE6B A5 AC			lda	arg12
   234 AE6D 6D 93 04			adc	vars.codesize
   235 AE70 85 AE			sta	arg14
   236 AE72 D0 01			bne	??mw2
   237 AE74 CA				dex	
   238 AE75 C6 AE		??mw2	dec	arg14
   239 AE77 8A				txa	
   240 AE78 6D 94 04			adc	vars.codesize+1
   241 AE7B 85 AF			sta	arg15
   242 AE7D 20 C5 AE			jsr	mwout
   243
   244 				; write the qcode
   245 AE80 A2 10			ldx	#cio_channel.one*cio_channel.factor
   246 AE82 A9 0B			lda	#cio_command.putchr ; output command
   247 AE84 9D 42 03			sta	iccom,x
   248 AE87 AD 91 04			lda	vars.codebase
   249 AE8A 9D 44 03			sta	icbadr,x	; address
   250 AE8D AD 92 04			lda	vars.codebase+1
   251 AE90 9D 45 03			sta	icbadr+1,x
   252 AE93 AD 93 04			lda	vars.codesize
   253 AE96 9D 48 03			sta	icblen,x	; size
   254 AE99 AD 94 04			lda	vars.codesize+1
   255 AE9C 9D 49 03			sta	icblen+1,x
   256 AE9F 20 56 E4			jsr	ciov		; CIOV
   257 AEA2 30 2F			bmi	mxerr.mwerr
   258
   259 				; save start address
   260 AEA4 A2 04			ldx	#.len mwinit-1
   261 AEA6 BD C0 AE		??mw3	lda	mwinit,x
   262 AEA9 95 A9			sta	arg9,x
   263 AEAB CA				dex	
   264 AEAC 10 F8			bpl	??mw3
   265 AEAE AD E2 02			lda	initad
   266 AEB1 85 AE			sta	arg14
   267 AEB3 AD E3 02			lda	initad+1
   268 AEB6 85 AF			sta	arg15
   269 AEB8 20 C5 AE			jsr	mwout
   270
   271 				; close file
   272 AEBB A9 01			lda	#cio_channel.one
   273 AEBD 4C 26 B0			jmp	mainio.close
   274
   275 AEC0				.local mwinit
   276 AEC0 06				.byte	6
   277 					.if fix_save_initad = 1	;Use RUNAD instead of INITAD when saving the executable
   278 						.word	runad
   279 						.word	runad+1
   280 					.else
   281 AEC1 E2 02				.word	initad
   282 AEC3 E3 02				.word	initad+1
   283 					.endif
   284 					.endl
   285
   286 					.endp
   287
   288 AEC5			mwout	.proc
   289 AEC5 A9 01			lda	#1
   290 AEC7 A2 A9			ldx	#arg9
   291 AEC9 A0 00			ldy	#0
   292 AECB 20 6E B0			jsr	mainio.output
   293 AECE 30 03			bmi	mxerr.mwerr
   294 AED0 60				rts	
   295 					.endp
   296
   297 AED1			mxerr	.proc
   298 AED1 A0 0B			ldy	#compiler.errors.ender
   299 AED3 4C 83 B8		mwerr	jmp	mainbnk.splerr
   300 					.endp
   301
   302 AED6			mx	.proc			; execute command line
   303 AED6 A9 00			lda	#0
   304 AED8 85 B5			sta	codeoff
   305 AEDA 85 B6			sta	codeoff+1
   306 AEDC A5 0E			lda	qcode
   307 AEDE 48				pha	
   308 AEDF A5 0F			lda	qcode+1
   309 AEE1 48				pha	
   310 AEE2 20 63 B3			jsr	getnext
   311 AEE5 20 54 B8			jsr	mainbnk.cstmtlst
   312 AEE8 C9 7F			cmp	#compiler.tokens.eofid
   313 AEEA D0 E5			bne	mxerr
   314 AEEC A9 60			lda	#opcode.rts_	; RTS
   315 AEEE A0 00			ldy	#0
   316 AEF0 91 0E			sta	(qcode),y
   317 AEF2 68				pla	
   318 AEF3 AA				tax	
   319 AEF4 68				pla	
   320 AEF5 4C 05 B8			jmp	mainbnk.run_
   321 					.endp
   322
   323 AEF8			comp	.proc			; Comp()
   324 AEF8 20 63 AF			jsr	splsetup
   325 AEFB 20 2F B1			jsr	mainio.dspoff
   326 AEFE 20 18 B8			jsr	mainbnk.compile
   327 AF01 4C 39 B1			jmp	mainio.dspon
   328 					.endp
   329
   330 				; see MAIN.BNK now
   331 				;Dret .proc ; Dret() go to DOS
   332 				; LDA DOSVEC
   333 				; LDX DOSVEC+1
   334 				; JMP JSRInd
   335
   336
   337 AF04			proceed	.proc			; Proceed()
   338 AF04 AE C1 04			ldx	vars.procsp
   339 AF07 F0 09			beq	??p1
   340 				; LDA #< ??pmsg
   341 				; LDX #> ??pmsg
   342 				; JSR YesNo
   343 				; BNE ??p1
   344 				; LDX procSP ; break stack pointer
   345
   346 AF09 A9 00			lda	#0
   347 AF0B 8D C1 04			sta	vars.procsp
   348 AF0E 9A				txs	
   349 AF0F 4C 68 B8			jmp	mainbnk.lproceed
   350
   351 AF12 60			??p1	rts	
   352
   353 				;:Pmsg DEFMSG "Proceed? "
   354 					.endp
   355
   356 AF13			printh	.proc			; PrintH(num)
   357 AF13 85 A0			sta	arg0
   358 AF15 86 A1			stx	arg1
   359 AF17 A9 04			lda	#4
   360 AF19 85 A2			sta	arg2
   361 AF1B A0 24			ldy	#'$'
   362 AF1D 20 00 B2			jsr	mainio.putchar
   363 AF20 A9 00		??ph1	lda	#0
   364 AF22 A2 04			ldx	#4
   365 AF24 06 A0		??ph2	asl	arg0
   366 AF26 26 A1			rol	arg1
   367 AF28 2A				rol
   368 AF29 CA				dex	
   369 AF2A D0 F8			bne	??ph2
   370 				; CLC
   371 AF2C 69 30			adc	#'0'
   372 AF2E C9 3A			cmp	#':'
   373 AF30 30 02			bmi	??ph3
   374 AF32 69 06			adc	#6
   375 AF34 A8			??ph3	tay	
   376 AF35 20 00 B2			jsr	mainio.putchar
   377 AF38 C6 A2			dec	arg2
   378 AF3A D0 E4			bne	??ph1
   379 AF3C 60				rts	
   380 					.endp
   381
   382 AF3D			mcmd	.local
   383 AF3D FB 04			.word	disptb+9	; unknown cmd
   384 AF3F 23				.byte	35		; table size
   385 AF40 08 AE			.word	boot
   386 AF42 62				.byte	'b'
   387 AF43 F8 AE			.word	comp
   388 AF45 63				.byte	'c'
   389 AF46 CE B8			.word	mainbnk.dret
   390 AF48 64				.byte	'd'
   391 AF49 5E AD			.word	mquit
   392 AF4B 65				.byte	'e'
   393 				; .WORD Format
   394 				; .BYTE 'f
   395 AF4C 71 B8			.word	mainbnk.options
   396 AF4E 6F				.byte	'o'
   397 AF4F 04 AF			.word	proceed
   398 AF51 70				.byte	'p'
   399 AF52 1B AE			.word	mrun
   400 AF54 72				.byte	'r'
   401 AF55 3C AE			.word	mwrite
   402 AF57 77				.byte	'w'
   403 AF58 D6 AE			.word	mx
   404 AF5A 78				.byte	'x'
   405 AF5B B3 AD			.word	mprint
   406 AF5D 3F				.byte	'?'
   407 AF5E 94 AD			.word	mdump
   408 AF60 2A				.byte	'*'
   409 					.endl
   410
   411 AF61			mprompt	m_string '>'
Macro: M_STRING [Source: ACTION.DEF.asm]
     1 AF61 01				.byte [.len string]
     3 AF62 3E				.byte '>'
Source: AMPL.MON.asm
   412
   413 					.endp		; end of monitor
   132 					.endl
   133
   134 AF63				icl	"ampl/AMPL.INI.asm"
Source: AMPL.INI.asm
     1 				;
     2 				;	AMPL.INI
     3 				;
     4 				; Copyright 1982 by Clinton W Parker.
     5 				; All Rights Reserved.
     6 				; Original last modified May 4, 1983.
     7 				;
     8 				; This file is part of Action!.
     9 				;
    10 				; Action! is free software: you can redistribute it and/or modify
    11 				; it under the terms of the GNU General Public License as published by
    12 				; the Free Software Foundation, either version 3 of the License, or
    13 				; (at your option) any later version.
    14 				;
    15 				; Action! is distributed in the hope that it will be useful,
    16 				; but WITHOUT ANY WARRANTY; without even the implied warranty of
    17 				; MERCHANTABILITY or FITNESS FOR A PARTICULAR PURPOSE.  See the
    18 				; GNU General Public License for more details.
    19 				;
    20 				; You should have received a copy of the GNU General Public License
    21 				; along with Action!.  If not, see <http://www.gnu.org/licenses/>.
    22 				;
    23 				; @com.wudsn.ide.asm.mainsourcefile=../ACTION.asm
    24
    25
    26 AF63			splsetup	.proc		; SPLsetup()
    27 AF63 A9 00			lda	#0
    28 AF65 A8				tay	
    29 AF66 85 8C			sta	sp
    30 AF68 85 98			sta	chan
    31 AF6A 85 BD			sta	symtab
    32 AF6C 8D E3 02			sta	initad+1
    33 AF6F 91 9B			sta	(buf),y
    34 AF71 8D 9D 04			sta	vars.param
    35 AF74 85 B8			sta	qglobal
    36 AF76 85 9A			sta	stackptr
    37 AF78 85 D1			sta	arrayptr+1
    38 AF7A 85 93			sta	whaddr+1
    39 AF7C 85 C8			sta	curnxt+1
    40 AF7E 8D C1 04			sta	vars.procsp
    41
    42 				; clear qglobal s.t.
    43 AF81 AE C4 04			ldx	vars.bigst	; big s.t. ?
    44 AF84 F0 05			beq	??spls0		; no
    45 AF86 91 CE		??s0	sta	(stg2),y
    46 AF88 C8				iny	
    47 AF89 D0 FB			bne	??s0
    48 AF8B 91 B1		??spls0	sta	(stglobal),y
    49 AF8D C8				iny	
    50 AF8E D0 FB			bne	??spls0
    51
    52 				; get last block in heap
    53 AF90 A5 80			lda	afbase
    54 AF92 A6 81			ldx	afbase+1
    55 AF94 85 A0			sta	arg0
    56 AF96 86 A1			stx	arg1
    57 AF98 A0 01		??spls1	ldy	#1
    58 AF9A B1 A0			lda	(arg0),y
    59 AF9C F0 0B			beq	??spls2
    60 AF9E AA				tax	
    61 AF9F 88				dey	
    62 AFA0 B1 A0			lda	(arg0),y
    63 AFA2 85 A0			sta	arg0
    64 AFA4 86 A1			stx	arg1
    65 AFA6 4C 98 AF			jmp	??spls1
    66
    67 AFA9 18			??spls2	clc	
    68 AFAA A5 A0			lda	arg0
    69 AFAC 69 04			adc	#4
    70 AFAE 90 02			bcc	??spls3
    71 AFB0 E6 A1			inc	arg1
    72
    73 AFB2 8D 91 04		??spls3	sta	vars.codebase
    74 AFB5 85 0E			sta	qcode
    75
    76 AFB7 A5 A1			lda	arg1
    77 AFB9 8D 92 04			sta	vars.codebase+1
    78 AFBC 85 0F			sta	qcode+1
    79
    80 AFBE AD E6 02			lda	memtop+1
    81 AFC1 85 BF			sta	stmax
    82 AFC3 C6 BF			dec	stmax
    83 AFC5 18				clc	
    84 AFC6 ED 95 04			sbc	vars.stsp
    85 AFC9 85 B0			sta	stbase
    86 AFCB 85 BE			sta	symtab+1
    87 AFCD E6 BE			inc	symtab+1
    88
    89 AFCF C5 0F			cmp	qcode+1
    90 AFD1 B0 0F			bcs	??spls4
    91
    92 				; can't allocate memory
    93 AFD3 AD A3 04			lda	vars.sparem
    94 AFD6 85 BD			sta	symtab
    95 AFD8 AD A4 04			lda	vars.sparem+1
    96 AFDB 85 BE			sta	symtab+1
    97 AFDD A0 14			ldy	#compiler.errors.alcer
    98 AFDF 4C 83 B8			jmp	mainbnk.splerr
    99
   100 AFE2 AD A3 04		??spls4	lda	vars.sparem
   101 AFE5 85 BB			sta	frame
   102 AFE7 AE A4 04			ldx	vars.sparem+1
   103 AFEA E8				inx	
   104 AFEB E8				inx	
   105 AFEC 86 BC			stx	frame+1
   106
   107 AFEE A9 77			lda	#<stkbase
   108 AFF0 85 B9			sta	stack
   109 AFF2 A9 05			lda	#>stkbase
   110 AFF4 85 BA			sta	stack+1
   111 AFF6 8D A0 04			sta	vars.cury	; unknown initial Y value
   112
   113 AFF9 60				rts
   114 					.endp
   135
   136 AFFA 63 65 73			.byte 'ces'
   137 AFFD				m_end_switched_bank el ebank
Macro: M_END_SWITCHED_BANK [Source: ACTION.ROM.asm]
     1 AFFD			bank_used_end
     3 AFFF			bank_end
     4 AFFF 01				.byte	rom.EBANK & rom.bankmsk	; Bank identifier at end of bank.
     5 					.print "Ending switched bank EL/EBANK: " , bank_used_end, " - ", bank_end, "(", bank_end-bank_used_end+1, " bytes free)"
     5 				Ending switched bank EL/EBANK: $AFFD - $AFFF($0003 bytes free)
Source: ACTION-ROM-OSS-16k.asm
   138
